
AccelerometerAndGyro-Kalman.elf:     file format elf32-avr

Sections:
Idx Name          Size      VMA       LMA       File off  Algn
  0 .data         00000126  00800100  000039d6  00003a6a  2**0
                  CONTENTS, ALLOC, LOAD, DATA
  1 .text         000039d6  00000000  00000000  00000094  2**1
                  CONTENTS, ALLOC, LOAD, READONLY, CODE
  2 .bss          0000024e  00800226  00800226  00003b90  2**0
                  ALLOC
  3 .comment      0000005c  00000000  00000000  00003b90  2**0
                  CONTENTS, READONLY
  4 .note.gnu.avr.deviceinfo 00000040  00000000  00000000  00003bec  2**2
                  CONTENTS, READONLY
  5 .debug_aranges 00000878  00000000  00000000  00003c2c  2**0
                  CONTENTS, READONLY, DEBUGGING
  6 .debug_info   00012b60  00000000  00000000  000044a4  2**0
                  CONTENTS, READONLY, DEBUGGING
  7 .debug_abbrev 00002d37  00000000  00000000  00017004  2**0
                  CONTENTS, READONLY, DEBUGGING
  8 .debug_line   000044cd  00000000  00000000  00019d3b  2**0
                  CONTENTS, READONLY, DEBUGGING
  9 .debug_frame  00001af4  00000000  00000000  0001e208  2**2
                  CONTENTS, READONLY, DEBUGGING
 10 .debug_str    00003342  00000000  00000000  0001fcfc  2**0
                  CONTENTS, READONLY, DEBUGGING
 11 .debug_loc    000091a5  00000000  00000000  0002303e  2**0
                  CONTENTS, READONLY, DEBUGGING
 12 .debug_ranges 00000880  00000000  00000000  0002c1e3  2**0
                  CONTENTS, READONLY, DEBUGGING

Disassembly of section .text:

00000000 <__vectors>:
       0:	0c 94 95 00 	jmp	0x12a	; 0x12a <__dtors_end>
       4:	0c 94 bd 00 	jmp	0x17a	; 0x17a <__bad_interrupt>
       8:	0c 94 bd 00 	jmp	0x17a	; 0x17a <__bad_interrupt>
       c:	0c 94 bd 00 	jmp	0x17a	; 0x17a <__bad_interrupt>
      10:	0c 94 bd 00 	jmp	0x17a	; 0x17a <__bad_interrupt>
      14:	0c 94 bd 00 	jmp	0x17a	; 0x17a <__bad_interrupt>
      18:	0c 94 bd 00 	jmp	0x17a	; 0x17a <__bad_interrupt>
      1c:	0c 94 bd 00 	jmp	0x17a	; 0x17a <__bad_interrupt>
      20:	0c 94 bd 00 	jmp	0x17a	; 0x17a <__bad_interrupt>
      24:	0c 94 bd 00 	jmp	0x17a	; 0x17a <__bad_interrupt>
      28:	0c 94 bd 00 	jmp	0x17a	; 0x17a <__bad_interrupt>
      2c:	0c 94 bd 00 	jmp	0x17a	; 0x17a <__bad_interrupt>
      30:	0c 94 bd 00 	jmp	0x17a	; 0x17a <__bad_interrupt>
      34:	0c 94 bd 00 	jmp	0x17a	; 0x17a <__bad_interrupt>
      38:	0c 94 bd 00 	jmp	0x17a	; 0x17a <__bad_interrupt>
      3c:	0c 94 bd 00 	jmp	0x17a	; 0x17a <__bad_interrupt>
      40:	0c 94 b2 0f 	jmp	0x1f64	; 0x1f64 <__vector_16>
      44:	0c 94 bd 00 	jmp	0x17a	; 0x17a <__bad_interrupt>
      48:	0c 94 21 0d 	jmp	0x1a42	; 0x1a42 <__vector_18>
      4c:	0c 94 53 0d 	jmp	0x1aa6	; 0x1aa6 <__vector_19>
      50:	0c 94 bd 00 	jmp	0x17a	; 0x17a <__bad_interrupt>
      54:	0c 94 bd 00 	jmp	0x17a	; 0x17a <__bad_interrupt>
      58:	0c 94 bd 00 	jmp	0x17a	; 0x17a <__bad_interrupt>
      5c:	0c 94 bd 00 	jmp	0x17a	; 0x17a <__bad_interrupt>
      60:	0c 94 44 17 	jmp	0x2e88	; 0x2e88 <__vector_24>
      64:	0c 94 bd 00 	jmp	0x17a	; 0x17a <__bad_interrupt>
      68:	08 4a       	sbci	r16, 0xA8	; 168
      6a:	d7 3b       	cpi	r29, 0xB7	; 183
      6c:	3b ce       	rjmp	.-906    	; 0xfffffce4 <__eeprom_end+0xff7efce4>
      6e:	01 6e       	ori	r16, 0xE1	; 225
      70:	84 bc       	out	0x24, r8	; 36
      72:	bf fd       	.word	0xfdbf	; ????
      74:	c1 2f       	mov	r28, r17
      76:	3d 6c       	ori	r19, 0xCD	; 205
      78:	74 31       	cpi	r23, 0x14	; 20
      7a:	9a bd       	out	0x2a, r25	; 42
      7c:	56 83       	std	Z+6, r21	; 0x06
      7e:	3d da       	rcall	.-2950   	; 0xfffff4fa <__eeprom_end+0xff7ef4fa>
      80:	3d 00       	.word	0x003d	; ????
      82:	c7 7f       	andi	r28, 0xF7	; 247
      84:	11 be       	out	0x31, r1	; 49
      86:	d9 e4       	ldi	r29, 0x49	; 73
      88:	bb 4c       	sbci	r27, 0xCB	; 203
      8a:	3e 91       	ld	r19, -X
      8c:	6b aa       	std	Y+51, r6	; 0x33
      8e:	aa be       	out	0x3a, r10	; 58
      90:	00 00       	nop
      92:	00 80       	ld	r0, Z
      94:	3f 00       	.word	0x003f	; ????

00000096 <__trampolines_end>:
      96:	4e 41       	sbci	r20, 0x1E	; 30
      98:	4e 49       	Address 0x00000098 is out of bounds.
.word	0xffff	; ????

00000099 <pstr_inity>:
      99:	49 4e 49 54 59                                      INITY

0000009e <pstr_inf>:
      9e:	49 4e 46                                            INF

000000a1 <pwr_m10>:
      a1:	cd cc cc 3d 0a d7 23 3c 17 b7 d1 38 77 cc 2b 32     ...=..#<...8w.+2
      b1:	95 95 e6 24 1f b1 4f 0a                             ...$..O.

000000b9 <pwr_p10>:
      b9:	00 00 20 41 00 00 c8 42 00 40 1c 46 20 bc be 4c     .. A...B.@.F ..L
      c9:	ca 1b 0e 5a ae c5 9d 74                             ...Z...t

000000d1 <digital_pin_to_timer_PGM>:
      d1:	00 00 00 08 00 02 01 00 00 03 04 07 00 00 00 00     ................
      e1:	00 00 00 00                                         ....

000000e5 <digital_pin_to_bit_mask_PGM>:
      e5:	01 02 04 08 10 20 40 80 01 02 04 08 10 20 01 02     ..... @...... ..
      f5:	04 08 10 20                                         ... 

000000f9 <digital_pin_to_port_PGM>:
      f9:	04 04 04 04 04 04 04 04 02 02 02 02 02 02 03 03     ................
     109:	03 03 03 03                                         ....

0000010d <port_to_output_PGM>:
     10d:	00 00 00 00 25 00 28 00 2b 00                       ....%.(.+.

00000117 <port_to_mode_PGM>:
     117:	00 00 00 00 24 00 27 00 2a 00 00                    ....$.'.*..

00000122 <__ctors_start>:
     122:	f2 01       	movw	r30, r4
     124:	83 0d       	add	r24, r3
     126:	58 16       	cp	r5, r24

00000128 <__ctors_end>:
     128:	0e 02       	muls	r16, r30

0000012a <__dtors_end>:
     12a:	11 24       	eor	r1, r1
     12c:	1f be       	out	0x3f, r1	; 63
     12e:	cf ef       	ldi	r28, 0xFF	; 255
     130:	d8 e0       	ldi	r29, 0x08	; 8
     132:	de bf       	out	0x3e, r29	; 62
     134:	cd bf       	out	0x3d, r28	; 61

00000136 <__do_copy_data>:
     136:	12 e0       	ldi	r17, 0x02	; 2
     138:	a0 e0       	ldi	r26, 0x00	; 0
     13a:	b1 e0       	ldi	r27, 0x01	; 1
     13c:	e6 ed       	ldi	r30, 0xD6	; 214
     13e:	f9 e3       	ldi	r31, 0x39	; 57
     140:	02 c0       	rjmp	.+4      	; 0x146 <__do_copy_data+0x10>
     142:	05 90       	lpm	r0, Z+
     144:	0d 92       	st	X+, r0
     146:	a6 32       	cpi	r26, 0x26	; 38
     148:	b1 07       	cpc	r27, r17
     14a:	d9 f7       	brne	.-10     	; 0x142 <__do_copy_data+0xc>

0000014c <__do_clear_bss>:
     14c:	24 e0       	ldi	r18, 0x04	; 4
     14e:	a6 e2       	ldi	r26, 0x26	; 38
     150:	b2 e0       	ldi	r27, 0x02	; 2
     152:	01 c0       	rjmp	.+2      	; 0x156 <.do_clear_bss_start>

00000154 <.do_clear_bss_loop>:
     154:	1d 92       	st	X+, r1

00000156 <.do_clear_bss_start>:
     156:	a4 37       	cpi	r26, 0x74	; 116
     158:	b2 07       	cpc	r27, r18
     15a:	e1 f7       	brne	.-8      	; 0x154 <.do_clear_bss_loop>

0000015c <__do_global_ctors>:
     15c:	10 e0       	ldi	r17, 0x00	; 0
     15e:	c4 e9       	ldi	r28, 0x94	; 148
     160:	d0 e0       	ldi	r29, 0x00	; 0
     162:	04 c0       	rjmp	.+8      	; 0x16c <__do_global_ctors+0x10>
     164:	21 97       	sbiw	r28, 0x01	; 1
     166:	fe 01       	movw	r30, r28
     168:	0e 94 c0 18 	call	0x3180	; 0x3180 <__tablejump2__>
     16c:	c1 39       	cpi	r28, 0x91	; 145
     16e:	d1 07       	cpc	r29, r17
     170:	c9 f7       	brne	.-14     	; 0x164 <__do_global_ctors+0x8>
     172:	0e 94 b1 0d 	call	0x1b62	; 0x1b62 <main>
     176:	0c 94 de 1c 	jmp	0x39bc	; 0x39bc <__do_global_dtors>

0000017a <__bad_interrupt>:
     17a:	0c 94 00 00 	jmp	0	; 0x0 <__vectors>

0000017e <_ZN15Adafruit_Sensor15enableAutoRangeEb>:
	Serial.print  ("Min Value:    "); Serial.print(sensor.min_value); Serial.println(" uT");
	Serial.print  ("Resolution:   "); Serial.print(sensor.resolution); Serial.println(" uT");
	Serial.println("------------------------------------");
	Serial.println("");
	delay(500);
}
     17e:	08 95       	ret

00000180 <_ZN7TwoWire5writeEi>:
     180:	dc 01       	movw	r26, r24
     182:	ed 91       	ld	r30, X+
     184:	fc 91       	ld	r31, X
     186:	01 90       	ld	r0, Z+
     188:	f0 81       	ld	r31, Z
     18a:	e0 2d       	mov	r30, r0
     18c:	09 94       	ijmp

0000018e <_Z10MotorsInitv>:
	//A0 = 23
	//A1 = 24
	//A2 = 25
	//D12 = 12

	pinMode(dir1PinLF, OUTPUT);
     18e:	61 e0       	ldi	r22, 0x01	; 1
     190:	80 91 34 01 	lds	r24, 0x0134	; 0x800134 <dir1PinLF>
     194:	0e 94 20 11 	call	0x2240	; 0x2240 <pinMode>
	pinMode(dir2PinLF, OUTPUT);
     198:	61 e0       	ldi	r22, 0x01	; 1
     19a:	80 91 32 01 	lds	r24, 0x0132	; 0x800132 <dir2PinLF>
     19e:	0e 94 20 11 	call	0x2240	; 0x2240 <pinMode>
	pinMode(speedPinLF, OUTPUT);
     1a2:	61 e0       	ldi	r22, 0x01	; 1
     1a4:	80 91 30 01 	lds	r24, 0x0130	; 0x800130 <speedPinLF>
     1a8:	0e 94 20 11 	call	0x2240	; 0x2240 <pinMode>

	pinMode(dir1PinRF, OUTPUT);
     1ac:	61 e0       	ldi	r22, 0x01	; 1
     1ae:	80 91 2e 01 	lds	r24, 0x012E	; 0x80012e <dir1PinRF>
     1b2:	0e 94 20 11 	call	0x2240	; 0x2240 <pinMode>
	pinMode(dir2PinRF, OUTPUT);
     1b6:	61 e0       	ldi	r22, 0x01	; 1
     1b8:	80 91 2c 01 	lds	r24, 0x012C	; 0x80012c <dir2PinRF>
     1bc:	0e 94 20 11 	call	0x2240	; 0x2240 <pinMode>
	pinMode(speedPinRF, OUTPUT);
     1c0:	61 e0       	ldi	r22, 0x01	; 1
     1c2:	80 91 2a 01 	lds	r24, 0x012A	; 0x80012a <speedPinRF>
     1c6:	0e 94 20 11 	call	0x2240	; 0x2240 <pinMode>

	pinMode(dir1PinLB, OUTPUT);
     1ca:	61 e0       	ldi	r22, 0x01	; 1
     1cc:	80 91 28 01 	lds	r24, 0x0128	; 0x800128 <dir1PinLB>
     1d0:	0e 94 20 11 	call	0x2240	; 0x2240 <pinMode>
	pinMode(dir2PinLB, OUTPUT);
     1d4:	61 e0       	ldi	r22, 0x01	; 1
     1d6:	80 91 26 01 	lds	r24, 0x0126	; 0x800126 <dir2PinLB>
     1da:	0e 94 20 11 	call	0x2240	; 0x2240 <pinMode>
	pinMode(speedPinLB, OUTPUT);
     1de:	61 e0       	ldi	r22, 0x01	; 1
     1e0:	80 91 24 01 	lds	r24, 0x0124	; 0x800124 <speedPinLB>
     1e4:	0e 94 20 11 	call	0x2240	; 0x2240 <pinMode>

	pinMode(dir1PinRB, OUTPUT);
     1e8:	61 e0       	ldi	r22, 0x01	; 1
     1ea:	80 91 22 01 	lds	r24, 0x0122	; 0x800122 <dir1PinRB>
     1ee:	0e 94 20 11 	call	0x2240	; 0x2240 <pinMode>
	pinMode(dir2PinRB, OUTPUT);
     1f2:	61 e0       	ldi	r22, 0x01	; 1
     1f4:	80 91 20 01 	lds	r24, 0x0120	; 0x800120 <dir2PinRB>
     1f8:	0e 94 20 11 	call	0x2240	; 0x2240 <pinMode>
	pinMode(speedPinRB, OUTPUT);
     1fc:	61 e0       	ldi	r22, 0x01	; 1
     1fe:	80 91 1e 01 	lds	r24, 0x011E	; 0x80011e <speedPinRB>
     202:	0c 94 20 11 	jmp	0x2240	; 0x2240 <pinMode>

00000206 <_Z8wheeldiri>:
	Wire.endTransmission(); //end transmission
}



void wheeldir (int wheelnum) {
     206:	cf 92       	push	r12
     208:	df 92       	push	r13
     20a:	ef 92       	push	r14
     20c:	ff 92       	push	r15
     20e:	0f 93       	push	r16
     210:	1f 93       	push	r17
     212:	cf 93       	push	r28
     214:	df 93       	push	r29
     216:	ec 01       	movw	r28, r24
	if (speedFromPC[wheelnum]>0)
     218:	8c 01       	movw	r16, r24
     21a:	00 0f       	add	r16, r16
     21c:	11 1f       	adc	r17, r17
     21e:	00 0f       	add	r16, r16
     220:	11 1f       	adc	r17, r17
     222:	f8 01       	movw	r30, r16
     224:	e6 5b       	subi	r30, 0xB6	; 182
     226:	fd 4f       	sbci	r31, 0xFD	; 253
     228:	c0 80       	ld	r12, Z
     22a:	d1 80       	ldd	r13, Z+1	; 0x01
     22c:	e2 80       	ldd	r14, Z+2	; 0x02
     22e:	f3 80       	ldd	r15, Z+3	; 0x03
     230:	20 e0       	ldi	r18, 0x00	; 0
     232:	30 e0       	ldi	r19, 0x00	; 0
     234:	a9 01       	movw	r20, r18
     236:	c7 01       	movw	r24, r14
     238:	b6 01       	movw	r22, r12
     23a:	0e 94 1d 0b 	call	0x163a	; 0x163a <__gesf2>
     23e:	cc 0f       	add	r28, r28
     240:	dd 1f       	adc	r29, r29
     242:	18 16       	cp	r1, r24
     244:	4c f4       	brge	.+18     	; 0x258 <_Z8wheeldiri+0x52>
	{
		digitalWrite(dir1[wheelnum],HIGH);
     246:	61 e0       	ldi	r22, 0x01	; 1
     248:	fe 01       	movw	r30, r28
     24a:	e2 5f       	subi	r30, 0xF2	; 242
     24c:	fe 4f       	sbci	r31, 0xFE	; 254
     24e:	80 81       	ld	r24, Z
     250:	0e 94 5c 11 	call	0x22b8	; 0x22b8 <digitalWrite>
		digitalWrite(dir2[wheelnum],LOW);
     254:	60 e0       	ldi	r22, 0x00	; 0
     256:	13 c0       	rjmp	.+38     	; 0x27e <_Z8wheeldiri+0x78>
	}else if (speedFromPC[wheelnum]<0)
     258:	20 e0       	ldi	r18, 0x00	; 0
     25a:	30 e0       	ldi	r19, 0x00	; 0
     25c:	a9 01       	movw	r20, r18
     25e:	c7 01       	movw	r24, r14
     260:	b6 01       	movw	r22, r12
     262:	0e 94 97 09 	call	0x132e	; 0x132e <__cmpsf2>
     266:	87 ff       	sbrs	r24, 7
     268:	02 c0       	rjmp	.+4      	; 0x26e <_Z8wheeldiri+0x68>
	{
		digitalWrite(dir1[wheelnum],LOW);
     26a:	60 e0       	ldi	r22, 0x00	; 0
     26c:	01 c0       	rjmp	.+2      	; 0x270 <_Z8wheeldiri+0x6a>
		digitalWrite(dir2[wheelnum],HIGH);
	} 
	else
	{
		digitalWrite(dir1[wheelnum],HIGH);
     26e:	61 e0       	ldi	r22, 0x01	; 1
     270:	fe 01       	movw	r30, r28
     272:	e2 5f       	subi	r30, 0xF2	; 242
     274:	fe 4f       	sbci	r31, 0xFE	; 254
     276:	80 81       	ld	r24, Z
     278:	0e 94 5c 11 	call	0x22b8	; 0x22b8 <digitalWrite>
		digitalWrite(dir2[wheelnum],HIGH);
     27c:	61 e0       	ldi	r22, 0x01	; 1
     27e:	fe 01       	movw	r30, r28
     280:	ea 5f       	subi	r30, 0xFA	; 250
     282:	fe 4f       	sbci	r31, 0xFE	; 254
     284:	80 81       	ld	r24, Z
     286:	0e 94 5c 11 	call	0x22b8	; 0x22b8 <digitalWrite>
	}
	analogWrite(speedPin[wheelnum], int(abs(speedFromPC[wheelnum])));
     28a:	f8 01       	movw	r30, r16
     28c:	e6 5b       	subi	r30, 0xB6	; 182
     28e:	fd 4f       	sbci	r31, 0xFD	; 253
     290:	c0 80       	ld	r12, Z
     292:	d1 80       	ldd	r13, Z+1	; 0x01
     294:	e2 80       	ldd	r14, Z+2	; 0x02
     296:	f3 80       	ldd	r15, Z+3	; 0x03
     298:	20 e0       	ldi	r18, 0x00	; 0
     29a:	30 e0       	ldi	r19, 0x00	; 0
     29c:	a9 01       	movw	r20, r18
     29e:	c7 01       	movw	r24, r14
     2a0:	b6 01       	movw	r22, r12
     2a2:	0e 94 1d 0b 	call	0x163a	; 0x163a <__gesf2>
     2a6:	18 16       	cp	r1, r24
     2a8:	1c f4       	brge	.+6      	; 0x2b0 <_Z8wheeldiri+0xaa>
     2aa:	c7 01       	movw	r24, r14
     2ac:	b6 01       	movw	r22, r12
     2ae:	03 c0       	rjmp	.+6      	; 0x2b6 <_Z8wheeldiri+0xb0>
     2b0:	c7 01       	movw	r24, r14
     2b2:	b6 01       	movw	r22, r12
     2b4:	90 58       	subi	r25, 0x80	; 128
     2b6:	0e 94 0e 0a 	call	0x141c	; 0x141c <__fixsfsi>
     2ba:	ca 5e       	subi	r28, 0xEA	; 234
     2bc:	de 4f       	sbci	r29, 0xFE	; 254
     2be:	88 81       	ld	r24, Y

}
     2c0:	df 91       	pop	r29
     2c2:	cf 91       	pop	r28
     2c4:	1f 91       	pop	r17
     2c6:	0f 91       	pop	r16
     2c8:	ff 90       	pop	r15
     2ca:	ef 90       	pop	r14
     2cc:	df 90       	pop	r13
     2ce:	cf 90       	pop	r12
	else
	{
		digitalWrite(dir1[wheelnum],HIGH);
		digitalWrite(dir2[wheelnum],HIGH);
	}
	analogWrite(speedPin[wheelnum], int(abs(speedFromPC[wheelnum])));
     2d0:	0c 94 98 10 	jmp	0x2130	; 0x2130 <analogWrite>

000002d4 <_Z9parseDatav>:
		newData = false;
	}
}


void parseData() {
     2d4:	cf 93       	push	r28
     2d6:	df 93       	push	r29
	// split the data into its parts
	char * strtokIndx; // this is used by strtok() as an index
	
	strtokIndx = strtok(receivedChars," ");      // get the first part - the string
     2d8:	68 e7       	ldi	r22, 0x78	; 120
     2da:	71 e0       	ldi	r23, 0x01	; 1
     2dc:	89 e2       	ldi	r24, 0x29	; 41
     2de:	92 e0       	ldi	r25, 0x02	; 2
     2e0:	0e 94 ca 1a 	call	0x3594	; 0x3594 <strtok>
	speedFromPC[0] = atof(strtokIndx);     // convert this part to an float
     2e4:	0e 94 bd 1a 	call	0x357a	; 0x357a <atof>
     2e8:	ca e4       	ldi	r28, 0x4A	; 74
     2ea:	d2 e0       	ldi	r29, 0x02	; 2
     2ec:	68 83       	st	Y, r22
     2ee:	79 83       	std	Y+1, r23	; 0x01
     2f0:	8a 83       	std	Y+2, r24	; 0x02
     2f2:	9b 83       	std	Y+3, r25	; 0x03
	
	strtokIndx = strtok(NULL, " "); // this continues where the previous call left off
     2f4:	68 e7       	ldi	r22, 0x78	; 120
     2f6:	71 e0       	ldi	r23, 0x01	; 1
     2f8:	80 e0       	ldi	r24, 0x00	; 0
     2fa:	90 e0       	ldi	r25, 0x00	; 0
     2fc:	0e 94 ca 1a 	call	0x3594	; 0x3594 <strtok>
	speedFromPC[1] = atof(strtokIndx);     // convert this part to an float
     300:	0e 94 bd 1a 	call	0x357a	; 0x357a <atof>
     304:	6c 83       	std	Y+4, r22	; 0x04
     306:	7d 83       	std	Y+5, r23	; 0x05
     308:	8e 83       	std	Y+6, r24	; 0x06
     30a:	9f 83       	std	Y+7, r25	; 0x07
	
	strtokIndx = strtok(NULL, " ");
     30c:	68 e7       	ldi	r22, 0x78	; 120
     30e:	71 e0       	ldi	r23, 0x01	; 1
     310:	80 e0       	ldi	r24, 0x00	; 0
     312:	90 e0       	ldi	r25, 0x00	; 0
     314:	0e 94 ca 1a 	call	0x3594	; 0x3594 <strtok>
	speedFromPC[2] = atof(strtokIndx);     // convert this part to a float
     318:	0e 94 bd 1a 	call	0x357a	; 0x357a <atof>
     31c:	68 87       	std	Y+8, r22	; 0x08
     31e:	79 87       	std	Y+9, r23	; 0x09
     320:	8a 87       	std	Y+10, r24	; 0x0a
     322:	9b 87       	std	Y+11, r25	; 0x0b

	strtokIndx = strtok(NULL, " ");
     324:	68 e7       	ldi	r22, 0x78	; 120
     326:	71 e0       	ldi	r23, 0x01	; 1
     328:	80 e0       	ldi	r24, 0x00	; 0
     32a:	90 e0       	ldi	r25, 0x00	; 0
     32c:	0e 94 ca 1a 	call	0x3594	; 0x3594 <strtok>
	speedFromPC[3] = atof(strtokIndx);     // convert this part to a float
     330:	0e 94 bd 1a 	call	0x357a	; 0x357a <atof>
     334:	6c 87       	std	Y+12, r22	; 0x0c
     336:	7d 87       	std	Y+13, r23	; 0x0d
     338:	8e 87       	std	Y+14, r24	; 0x0e
     33a:	9f 87       	std	Y+15, r25	; 0x0f

}
     33c:	df 91       	pop	r29
     33e:	cf 91       	pop	r28
     340:	08 95       	ret

00000342 <_Z14showParsedDatav>:


void showParsedData() {
     342:	cf 93       	push	r28
     344:	df 93       	push	r29
	Serial.print("LF ");
     346:	69 ec       	ldi	r22, 0xC9	; 201
     348:	71 e0       	ldi	r23, 0x01	; 1
     34a:	88 e0       	ldi	r24, 0x08	; 8
     34c:	93 e0       	ldi	r25, 0x03	; 3
     34e:	0e 94 0e 0e 	call	0x1c1c	; 0x1c1c <_ZN5Print5printEPKc>
	Serial.print(speedFromPC[0]);
     352:	ca e4       	ldi	r28, 0x4A	; 74
     354:	d2 e0       	ldi	r29, 0x02	; 2
     356:	48 81       	ld	r20, Y
     358:	59 81       	ldd	r21, Y+1	; 0x01
     35a:	6a 81       	ldd	r22, Y+2	; 0x02
     35c:	7b 81       	ldd	r23, Y+3	; 0x03
     35e:	22 e0       	ldi	r18, 0x02	; 2
     360:	30 e0       	ldi	r19, 0x00	; 0
     362:	88 e0       	ldi	r24, 0x08	; 8
     364:	93 e0       	ldi	r25, 0x03	; 3
     366:	0e 94 9e 0f 	call	0x1f3c	; 0x1f3c <_ZN5Print5printEdi>
	Serial.print(" RF ");
     36a:	6d ec       	ldi	r22, 0xCD	; 205
     36c:	71 e0       	ldi	r23, 0x01	; 1
     36e:	88 e0       	ldi	r24, 0x08	; 8
     370:	93 e0       	ldi	r25, 0x03	; 3
     372:	0e 94 0e 0e 	call	0x1c1c	; 0x1c1c <_ZN5Print5printEPKc>
	Serial.print(speedFromPC[1]);
     376:	4c 81       	ldd	r20, Y+4	; 0x04
     378:	5d 81       	ldd	r21, Y+5	; 0x05
     37a:	6e 81       	ldd	r22, Y+6	; 0x06
     37c:	7f 81       	ldd	r23, Y+7	; 0x07
     37e:	22 e0       	ldi	r18, 0x02	; 2
     380:	30 e0       	ldi	r19, 0x00	; 0
     382:	88 e0       	ldi	r24, 0x08	; 8
     384:	93 e0       	ldi	r25, 0x03	; 3
     386:	0e 94 9e 0f 	call	0x1f3c	; 0x1f3c <_ZN5Print5printEdi>
	Serial.print(" LB ");
     38a:	62 ed       	ldi	r22, 0xD2	; 210
     38c:	71 e0       	ldi	r23, 0x01	; 1
     38e:	88 e0       	ldi	r24, 0x08	; 8
     390:	93 e0       	ldi	r25, 0x03	; 3
     392:	0e 94 0e 0e 	call	0x1c1c	; 0x1c1c <_ZN5Print5printEPKc>
	Serial.print(speedFromPC[2]);
     396:	48 85       	ldd	r20, Y+8	; 0x08
     398:	59 85       	ldd	r21, Y+9	; 0x09
     39a:	6a 85       	ldd	r22, Y+10	; 0x0a
     39c:	7b 85       	ldd	r23, Y+11	; 0x0b
     39e:	22 e0       	ldi	r18, 0x02	; 2
     3a0:	30 e0       	ldi	r19, 0x00	; 0
     3a2:	88 e0       	ldi	r24, 0x08	; 8
     3a4:	93 e0       	ldi	r25, 0x03	; 3
     3a6:	0e 94 9e 0f 	call	0x1f3c	; 0x1f3c <_ZN5Print5printEdi>
	Serial.print(" RB ");
     3aa:	67 ed       	ldi	r22, 0xD7	; 215
     3ac:	71 e0       	ldi	r23, 0x01	; 1
     3ae:	88 e0       	ldi	r24, 0x08	; 8
     3b0:	93 e0       	ldi	r25, 0x03	; 3
     3b2:	0e 94 0e 0e 	call	0x1c1c	; 0x1c1c <_ZN5Print5printEPKc>
	Serial.println(speedFromPC[3]);
     3b6:	4c 85       	ldd	r20, Y+12	; 0x0c
     3b8:	5d 85       	ldd	r21, Y+13	; 0x0d
     3ba:	6e 85       	ldd	r22, Y+14	; 0x0e
     3bc:	7f 85       	ldd	r23, Y+15	; 0x0f
     3be:	22 e0       	ldi	r18, 0x02	; 2
     3c0:	30 e0       	ldi	r19, 0x00	; 0
     3c2:	88 e0       	ldi	r24, 0x08	; 8
     3c4:	93 e0       	ldi	r25, 0x03	; 3
}
     3c6:	df 91       	pop	r29
     3c8:	cf 91       	pop	r28
	Serial.print(" RF ");
	Serial.print(speedFromPC[1]);
	Serial.print(" LB ");
	Serial.print(speedFromPC[2]);
	Serial.print(" RB ");
	Serial.println(speedFromPC[3]);
     3ca:	0c 94 a0 0f 	jmp	0x1f40	; 0x1f40 <_ZN5Print7printlnEdi>

000003ce <_Z11showNewDatav>:
		}
	}
}

void showNewData() {
	if (newData == true) {
     3ce:	80 91 49 02 	lds	r24, 0x0249	; 0x800249 <newData>
     3d2:	88 23       	and	r24, r24
     3d4:	31 f0       	breq	.+12     	; 0x3e2 <_Z11showNewDatav+0x14>
		parseData();
     3d6:	0e 94 6a 01 	call	0x2d4	; 0x2d4 <_Z9parseDatav>
		showParsedData();
     3da:	0e 94 a1 01 	call	0x342	; 0x342 <_Z14showParsedDatav>
		newData = false;
     3de:	10 92 49 02 	sts	0x0249, r1	; 0x800249 <newData>
     3e2:	08 95       	ret

000003e4 <_GLOBAL__sub_I_mag>:
//End of Auto generated function prototypes by Atmel Studio



/* Assign a unique ID to this sensor at the same time */
Adafruit_HMC5883_Unified mag = Adafruit_HMC5883_Unified(12345);
     3e4:	49 e3       	ldi	r20, 0x39	; 57
     3e6:	50 e3       	ldi	r21, 0x30	; 48
     3e8:	60 e0       	ldi	r22, 0x00	; 0
     3ea:	70 e0       	ldi	r23, 0x00	; 0
     3ec:	80 ef       	ldi	r24, 0xF0	; 240
     3ee:	92 e0       	ldi	r25, 0x02	; 2
     3f0:	0e 94 5f 12 	call	0x24be	; 0x24be <_ZN24Adafruit_HMC5883_UnifiedC1El>
int g_offy = 20;
int g_offz = 93;
int truetemp;
uint32_t timer;

Kalman kalmanX; // Create the Kalman instances
     3f4:	82 ec       	ldi	r24, 0xC2	; 194
     3f6:	92 e0       	ldi	r25, 0x02	; 2
     3f8:	0e 94 70 13 	call	0x26e0	; 0x26e0 <_ZN6KalmanC1Ev>
Kalman kalmanY;
     3fc:	8a e9       	ldi	r24, 0x9A	; 154
     3fe:	92 e0       	ldi	r25, 0x02	; 2
     400:	0e 94 70 13 	call	0x26e0	; 0x26e0 <_ZN6KalmanC1Ev>
double kalAngleX, kalAngleY; // Calculated angle using a Kalman filter
float headingDegrees;

int d = 100;
int speedall = 255;
String inputString = "";         // a string to hold incoming data
     404:	61 ef       	ldi	r22, 0xF1	; 241
     406:	71 e0       	ldi	r23, 0x01	; 1
     408:	80 e6       	ldi	r24, 0x60	; 96
     40a:	92 e0       	ldi	r25, 0x02	; 2
     40c:	0e 94 fa 11 	call	0x23f4	; 0x23f4 <_ZN6StringC1EPKc>
boolean stringComplete = false;  // whether the string is complete
String newlinechar = "\n\r";
     410:	6c ed       	ldi	r22, 0xDC	; 220
     412:	71 e0       	ldi	r23, 0x01	; 1
     414:	8a e5       	ldi	r24, 0x5A	; 90
     416:	92 e0       	ldi	r25, 0x02	; 2
     418:	0c 94 fa 11 	jmp	0x23f4	; 0x23f4 <_ZN6StringC1EPKc>

0000041c <_GLOBAL__sub_D_mag>:
     41c:	8a e5       	ldi	r24, 0x5A	; 90
     41e:	92 e0       	ldi	r25, 0x02	; 2
     420:	0e 94 8c 11 	call	0x2318	; 0x2318 <_ZN6StringD1Ev>
double kalAngleX, kalAngleY; // Calculated angle using a Kalman filter
float headingDegrees;

int d = 100;
int speedall = 255;
String inputString = "";         // a string to hold incoming data
     424:	80 e6       	ldi	r24, 0x60	; 96
     426:	92 e0       	ldi	r25, 0x02	; 2
     428:	0c 94 8c 11 	jmp	0x2318	; 0x2318 <_ZN6StringD1Ev>

0000042c <_Z17AccelerometerInitv>:
	pinMode(dir2PinRB, OUTPUT);
	pinMode(speedPinRB, OUTPUT);
}

void AccelerometerInit()
{
     42c:	cf 93       	push	r28
     42e:	df 93       	push	r29
	Wire.beginTransmission(0x40); // address of the accelerometer
     430:	60 e4       	ldi	r22, 0x40	; 64
     432:	70 e0       	ldi	r23, 0x00	; 0
     434:	8e ea       	ldi	r24, 0xAE	; 174
     436:	93 e0       	ldi	r25, 0x03	; 3
     438:	0e 94 d6 15 	call	0x2bac	; 0x2bac <_ZN7TwoWire17beginTransmissionEi>
	// reset the accelerometer
	Wire.write(0x10);
     43c:	60 e1       	ldi	r22, 0x10	; 16
     43e:	70 e0       	ldi	r23, 0x00	; 0
     440:	8e ea       	ldi	r24, 0xAE	; 174
     442:	93 e0       	ldi	r25, 0x03	; 3
     444:	0e 94 c0 00 	call	0x180	; 0x180 <_ZN7TwoWire5writeEi>
	Wire.write(0xB6);
     448:	66 eb       	ldi	r22, 0xB6	; 182
     44a:	70 e0       	ldi	r23, 0x00	; 0
     44c:	8e ea       	ldi	r24, 0xAE	; 174
     44e:	93 e0       	ldi	r25, 0x03	; 3
     450:	0e 94 c0 00 	call	0x180	; 0x180 <_ZN7TwoWire5writeEi>
	Wire.endTransmission();
     454:	8e ea       	ldi	r24, 0xAE	; 174
     456:	93 e0       	ldi	r25, 0x03	; 3
     458:	0e 94 55 16 	call	0x2caa	; 0x2caa <_ZN7TwoWire15endTransmissionEv>
	delay(10);
     45c:	6a e0       	ldi	r22, 0x0A	; 10
     45e:	70 e0       	ldi	r23, 0x00	; 0
     460:	80 e0       	ldi	r24, 0x00	; 0
     462:	90 e0       	ldi	r25, 0x00	; 0
     464:	0e 94 21 10 	call	0x2042	; 0x2042 <delay>
	
	Wire.beginTransmission(0x40); // address of the accelerometer
     468:	60 e4       	ldi	r22, 0x40	; 64
     46a:	70 e0       	ldi	r23, 0x00	; 0
     46c:	8e ea       	ldi	r24, 0xAE	; 174
     46e:	93 e0       	ldi	r25, 0x03	; 3
     470:	0e 94 d6 15 	call	0x2bac	; 0x2bac <_ZN7TwoWire17beginTransmissionEi>
	// low pass filter, range settings
	Wire.write(0x0D);
     474:	6d e0       	ldi	r22, 0x0D	; 13
     476:	70 e0       	ldi	r23, 0x00	; 0
     478:	8e ea       	ldi	r24, 0xAE	; 174
     47a:	93 e0       	ldi	r25, 0x03	; 3
     47c:	0e 94 c0 00 	call	0x180	; 0x180 <_ZN7TwoWire5writeEi>
	Wire.write(0x10);
     480:	60 e1       	ldi	r22, 0x10	; 16
     482:	70 e0       	ldi	r23, 0x00	; 0
     484:	8e ea       	ldi	r24, 0xAE	; 174
     486:	93 e0       	ldi	r25, 0x03	; 3
     488:	0e 94 c0 00 	call	0x180	; 0x180 <_ZN7TwoWire5writeEi>
	Wire.endTransmission();
     48c:	8e ea       	ldi	r24, 0xAE	; 174
     48e:	93 e0       	ldi	r25, 0x03	; 3
     490:	0e 94 55 16 	call	0x2caa	; 0x2caa <_ZN7TwoWire15endTransmissionEv>
	
	Wire.beginTransmission(0x40); // address of the accelerometer
     494:	60 e4       	ldi	r22, 0x40	; 64
     496:	70 e0       	ldi	r23, 0x00	; 0
     498:	8e ea       	ldi	r24, 0xAE	; 174
     49a:	93 e0       	ldi	r25, 0x03	; 3
     49c:	0e 94 d6 15 	call	0x2bac	; 0x2bac <_ZN7TwoWire17beginTransmissionEi>
	Wire.write(0x20); // read from here
     4a0:	60 e2       	ldi	r22, 0x20	; 32
     4a2:	70 e0       	ldi	r23, 0x00	; 0
     4a4:	8e ea       	ldi	r24, 0xAE	; 174
     4a6:	93 e0       	ldi	r25, 0x03	; 3
     4a8:	0e 94 c0 00 	call	0x180	; 0x180 <_ZN7TwoWire5writeEi>
	Wire.endTransmission();
     4ac:	8e ea       	ldi	r24, 0xAE	; 174
     4ae:	93 e0       	ldi	r25, 0x03	; 3
     4b0:	0e 94 55 16 	call	0x2caa	; 0x2caa <_ZN7TwoWire15endTransmissionEv>
	Wire.requestFrom(0x40, 1);
     4b4:	41 e0       	ldi	r20, 0x01	; 1
     4b6:	50 e0       	ldi	r21, 0x00	; 0
     4b8:	60 e4       	ldi	r22, 0x40	; 64
     4ba:	70 e0       	ldi	r23, 0x00	; 0
     4bc:	8e ea       	ldi	r24, 0xAE	; 174
     4be:	93 e0       	ldi	r25, 0x03	; 3
     4c0:	0e 94 52 16 	call	0x2ca4	; 0x2ca4 <_ZN7TwoWire11requestFromEii>
	byte data = Wire.read();
     4c4:	8e ea       	ldi	r24, 0xAE	; 174
     4c6:	93 e0       	ldi	r25, 0x03	; 3
     4c8:	0e 94 2f 15 	call	0x2a5e	; 0x2a5e <_ZN7TwoWire4readEv>
     4cc:	ec 01       	movw	r28, r24

	Wire.beginTransmission(0x40); // address of the accelerometer
     4ce:	60 e4       	ldi	r22, 0x40	; 64
     4d0:	70 e0       	ldi	r23, 0x00	; 0
     4d2:	8e ea       	ldi	r24, 0xAE	; 174
     4d4:	93 e0       	ldi	r25, 0x03	; 3
     4d6:	0e 94 d6 15 	call	0x2bac	; 0x2bac <_ZN7TwoWire17beginTransmissionEi>
	Wire.write(0x20);
     4da:	60 e2       	ldi	r22, 0x20	; 32
     4dc:	70 e0       	ldi	r23, 0x00	; 0
     4de:	8e ea       	ldi	r24, 0xAE	; 174
     4e0:	93 e0       	ldi	r25, 0x03	; 3
     4e2:	0e 94 c0 00 	call	0x180	; 0x180 <_ZN7TwoWire5writeEi>
	//	Wire.write(data & 0x0F); // low pass filter to 10 Hz
	Wire.write(data & 0x0F); // low pass filter to 10 Hz
     4e6:	be 01       	movw	r22, r28
     4e8:	6f 70       	andi	r22, 0x0F	; 15
     4ea:	77 27       	eor	r23, r23
     4ec:	8e ea       	ldi	r24, 0xAE	; 174
     4ee:	93 e0       	ldi	r25, 0x03	; 3
     4f0:	0e 94 c0 00 	call	0x180	; 0x180 <_ZN7TwoWire5writeEi>
	Wire.endTransmission();
     4f4:	8e ea       	ldi	r24, 0xAE	; 174
     4f6:	93 e0       	ldi	r25, 0x03	; 3
     4f8:	0e 94 55 16 	call	0x2caa	; 0x2caa <_ZN7TwoWire15endTransmissionEv>
	
	Wire.beginTransmission(0x40); // address of the accelerometer
     4fc:	60 e4       	ldi	r22, 0x40	; 64
     4fe:	70 e0       	ldi	r23, 0x00	; 0
     500:	8e ea       	ldi	r24, 0xAE	; 174
     502:	93 e0       	ldi	r25, 0x03	; 3
     504:	0e 94 d6 15 	call	0x2bac	; 0x2bac <_ZN7TwoWire17beginTransmissionEi>
	Wire.write(0x35); // read from here
     508:	65 e3       	ldi	r22, 0x35	; 53
     50a:	70 e0       	ldi	r23, 0x00	; 0
     50c:	8e ea       	ldi	r24, 0xAE	; 174
     50e:	93 e0       	ldi	r25, 0x03	; 3
     510:	0e 94 c0 00 	call	0x180	; 0x180 <_ZN7TwoWire5writeEi>
	Wire.endTransmission();
     514:	8e ea       	ldi	r24, 0xAE	; 174
     516:	93 e0       	ldi	r25, 0x03	; 3
     518:	0e 94 55 16 	call	0x2caa	; 0x2caa <_ZN7TwoWire15endTransmissionEv>
	Wire.requestFrom(0x40, 1);
     51c:	41 e0       	ldi	r20, 0x01	; 1
     51e:	50 e0       	ldi	r21, 0x00	; 0
     520:	60 e4       	ldi	r22, 0x40	; 64
     522:	70 e0       	ldi	r23, 0x00	; 0
     524:	8e ea       	ldi	r24, 0xAE	; 174
     526:	93 e0       	ldi	r25, 0x03	; 3
     528:	0e 94 52 16 	call	0x2ca4	; 0x2ca4 <_ZN7TwoWire11requestFromEii>
	data = Wire.read();
     52c:	8e ea       	ldi	r24, 0xAE	; 174
     52e:	93 e0       	ldi	r25, 0x03	; 3
     530:	0e 94 2f 15 	call	0x2a5e	; 0x2a5e <_ZN7TwoWire4readEv>
     534:	ec 01       	movw	r28, r24
	Wire.beginTransmission(0x40); // address of the accelerometer
     536:	60 e4       	ldi	r22, 0x40	; 64
     538:	70 e0       	ldi	r23, 0x00	; 0
     53a:	8e ea       	ldi	r24, 0xAE	; 174
     53c:	93 e0       	ldi	r25, 0x03	; 3
     53e:	0e 94 d6 15 	call	0x2bac	; 0x2bac <_ZN7TwoWire17beginTransmissionEi>
	Wire.write(0x35);
     542:	65 e3       	ldi	r22, 0x35	; 53
     544:	70 e0       	ldi	r23, 0x00	; 0
     546:	8e ea       	ldi	r24, 0xAE	; 174
     548:	93 e0       	ldi	r25, 0x03	; 3
     54a:	0e 94 c0 00 	call	0x180	; 0x180 <_ZN7TwoWire5writeEi>
	Wire.write((data & 0xF1) | 0x04); // range +/- 2g
     54e:	be 01       	movw	r22, r28
     550:	61 7f       	andi	r22, 0xF1	; 241
     552:	77 27       	eor	r23, r23
     554:	64 60       	ori	r22, 0x04	; 4
     556:	8e ea       	ldi	r24, 0xAE	; 174
     558:	93 e0       	ldi	r25, 0x03	; 3
     55a:	0e 94 c0 00 	call	0x180	; 0x180 <_ZN7TwoWire5writeEi>
	Wire.endTransmission();
     55e:	8e ea       	ldi	r24, 0xAE	; 174
     560:	93 e0       	ldi	r25, 0x03	; 3
     562:	0e 94 55 16 	call	0x2caa	; 0x2caa <_ZN7TwoWire15endTransmissionEv>

	Wire.beginTransmission(0x40); // address of the accelerometer
     566:	60 e4       	ldi	r22, 0x40	; 64
     568:	70 e0       	ldi	r23, 0x00	; 0
     56a:	8e ea       	ldi	r24, 0xAE	; 174
     56c:	93 e0       	ldi	r25, 0x03	; 3
     56e:	0e 94 d6 15 	call	0x2bac	; 0x2bac <_ZN7TwoWire17beginTransmissionEi>
	Wire.write(0x30);
     572:	60 e3       	ldi	r22, 0x30	; 48
     574:	70 e0       	ldi	r23, 0x00	; 0
     576:	8e ea       	ldi	r24, 0xAE	; 174
     578:	93 e0       	ldi	r25, 0x03	; 3
     57a:	0e 94 c0 00 	call	0x180	; 0x180 <_ZN7TwoWire5writeEi>
	//Wire.write(0x); //
	Wire.endTransmission();
     57e:	8e ea       	ldi	r24, 0xAE	; 174
     580:	93 e0       	ldi	r25, 0x03	; 3

	//Serial.println(data, BIN);

}
     582:	df 91       	pop	r29
     584:	cf 91       	pop	r28
	Wire.endTransmission();

	Wire.beginTransmission(0x40); // address of the accelerometer
	Wire.write(0x30);
	//Wire.write(0x); //
	Wire.endTransmission();
     586:	0c 94 55 16 	jmp	0x2caa	; 0x2caa <_ZN7TwoWire15endTransmissionEv>

0000058a <_Z17AccelerometerReadv>:
	//Serial.println(data, BIN);

}

void AccelerometerRead()
{
     58a:	cf 93       	push	r28
     58c:	df 93       	push	r29
	Wire.beginTransmission(0x40); // address of the accelerometer
     58e:	60 e4       	ldi	r22, 0x40	; 64
     590:	70 e0       	ldi	r23, 0x00	; 0
     592:	8e ea       	ldi	r24, 0xAE	; 174
     594:	93 e0       	ldi	r25, 0x03	; 3
     596:	0e 94 d6 15 	call	0x2bac	; 0x2bac <_ZN7TwoWire17beginTransmissionEi>
	Wire.write(0x02); // set read pointer to data
     59a:	62 e0       	ldi	r22, 0x02	; 2
     59c:	70 e0       	ldi	r23, 0x00	; 0
     59e:	8e ea       	ldi	r24, 0xAE	; 174
     5a0:	93 e0       	ldi	r25, 0x03	; 3
     5a2:	0e 94 c0 00 	call	0x180	; 0x180 <_ZN7TwoWire5writeEi>
	Wire.endTransmission();
     5a6:	8e ea       	ldi	r24, 0xAE	; 174
     5a8:	93 e0       	ldi	r25, 0x03	; 3
     5aa:	0e 94 55 16 	call	0x2caa	; 0x2caa <_ZN7TwoWire15endTransmissionEv>
	Wire.requestFrom(0x40, 6);
     5ae:	46 e0       	ldi	r20, 0x06	; 6
     5b0:	50 e0       	ldi	r21, 0x00	; 0
     5b2:	60 e4       	ldi	r22, 0x40	; 64
     5b4:	70 e0       	ldi	r23, 0x00	; 0
     5b6:	8e ea       	ldi	r24, 0xAE	; 174
     5b8:	93 e0       	ldi	r25, 0x03	; 3
     5ba:	0e 94 52 16 	call	0x2ca4	; 0x2ca4 <_ZN7TwoWire11requestFromEii>
	
	// read in the 3 axis data, each one is 16 bits
	// print the data to terminal
	
	short data = Wire.read();
     5be:	8e ea       	ldi	r24, 0xAE	; 174
     5c0:	93 e0       	ldi	r25, 0x03	; 3
     5c2:	0e 94 2f 15 	call	0x2a5e	; 0x2a5e <_ZN7TwoWire4readEv>
     5c6:	ec 01       	movw	r28, r24
	data += Wire.read() << 8;
     5c8:	8e ea       	ldi	r24, 0xAE	; 174
     5ca:	93 e0       	ldi	r25, 0x03	; 3
     5cc:	0e 94 2f 15 	call	0x2a5e	; 0x2a5e <_ZN7TwoWire4readEv>
     5d0:	60 e0       	ldi	r22, 0x00	; 0
     5d2:	70 e0       	ldi	r23, 0x00	; 0
     5d4:	78 2f       	mov	r23, r24
     5d6:	6c 0f       	add	r22, r28
     5d8:	7d 1f       	adc	r23, r29
	accX = data;
     5da:	07 2e       	mov	r0, r23
     5dc:	00 0c       	add	r0, r0
     5de:	88 0b       	sbc	r24, r24
     5e0:	99 0b       	sbc	r25, r25
     5e2:	0e 94 46 0a 	call	0x148c	; 0x148c <__floatsisf>
     5e6:	60 93 96 02 	sts	0x0296, r22	; 0x800296 <accX>
     5ea:	70 93 97 02 	sts	0x0297, r23	; 0x800297 <accX+0x1>
     5ee:	80 93 98 02 	sts	0x0298, r24	; 0x800298 <accX+0x2>
     5f2:	90 93 99 02 	sts	0x0299, r25	; 0x800299 <accX+0x3>
	data = Wire.read();
     5f6:	8e ea       	ldi	r24, 0xAE	; 174
     5f8:	93 e0       	ldi	r25, 0x03	; 3
     5fa:	0e 94 2f 15 	call	0x2a5e	; 0x2a5e <_ZN7TwoWire4readEv>
     5fe:	ec 01       	movw	r28, r24
	data += Wire.read() << 8;
     600:	8e ea       	ldi	r24, 0xAE	; 174
     602:	93 e0       	ldi	r25, 0x03	; 3
     604:	0e 94 2f 15 	call	0x2a5e	; 0x2a5e <_ZN7TwoWire4readEv>
     608:	60 e0       	ldi	r22, 0x00	; 0
     60a:	70 e0       	ldi	r23, 0x00	; 0
     60c:	78 2f       	mov	r23, r24
     60e:	6c 0f       	add	r22, r28
     610:	7d 1f       	adc	r23, r29
	accY = data;
     612:	07 2e       	mov	r0, r23
     614:	00 0c       	add	r0, r0
     616:	88 0b       	sbc	r24, r24
     618:	99 0b       	sbc	r25, r25
     61a:	0e 94 46 0a 	call	0x148c	; 0x148c <__floatsisf>
     61e:	60 93 92 02 	sts	0x0292, r22	; 0x800292 <accY>
     622:	70 93 93 02 	sts	0x0293, r23	; 0x800293 <accY+0x1>
     626:	80 93 94 02 	sts	0x0294, r24	; 0x800294 <accY+0x2>
     62a:	90 93 95 02 	sts	0x0295, r25	; 0x800295 <accY+0x3>
	data = Wire.read();
     62e:	8e ea       	ldi	r24, 0xAE	; 174
     630:	93 e0       	ldi	r25, 0x03	; 3
     632:	0e 94 2f 15 	call	0x2a5e	; 0x2a5e <_ZN7TwoWire4readEv>
     636:	ec 01       	movw	r28, r24
	data += Wire.read() << 8;
     638:	8e ea       	ldi	r24, 0xAE	; 174
     63a:	93 e0       	ldi	r25, 0x03	; 3
     63c:	0e 94 2f 15 	call	0x2a5e	; 0x2a5e <_ZN7TwoWire4readEv>
     640:	60 e0       	ldi	r22, 0x00	; 0
     642:	70 e0       	ldi	r23, 0x00	; 0
     644:	78 2f       	mov	r23, r24
     646:	6c 0f       	add	r22, r28
     648:	7d 1f       	adc	r23, r29
	accZ = data;
     64a:	07 2e       	mov	r0, r23
     64c:	00 0c       	add	r0, r0
     64e:	88 0b       	sbc	r24, r24
     650:	99 0b       	sbc	r25, r25
     652:	0e 94 46 0a 	call	0x148c	; 0x148c <__floatsisf>
     656:	60 93 8e 02 	sts	0x028E, r22	; 0x80028e <accZ>
     65a:	70 93 8f 02 	sts	0x028F, r23	; 0x80028f <accZ+0x1>
     65e:	80 93 90 02 	sts	0x0290, r24	; 0x800290 <accZ+0x2>
     662:	90 93 91 02 	sts	0x0291, r25	; 0x800291 <accZ+0x3>
	Serial.print(" , Z = ");
	Serial.print(accZ);
	Serial.println();
	#endif

}
     666:	df 91       	pop	r29
     668:	cf 91       	pop	r28
     66a:	08 95       	ret

0000066c <_Z7writeToihh>:

	
}

//Writes val to address register on ACC
void writeTo(int DEVICE, byte address, byte val) {
     66c:	1f 93       	push	r17
     66e:	cf 93       	push	r28
     670:	df 93       	push	r29
     672:	1f 92       	push	r1
     674:	cd b7       	in	r28, 0x3d	; 61
     676:	de b7       	in	r29, 0x3e	; 62
     678:	16 2f       	mov	r17, r22
	Wire.beginTransmission(DEVICE); //start transmission to ACC
     67a:	bc 01       	movw	r22, r24
     67c:	8e ea       	ldi	r24, 0xAE	; 174
     67e:	93 e0       	ldi	r25, 0x03	; 3
     680:	49 83       	std	Y+1, r20	; 0x01
     682:	0e 94 d6 15 	call	0x2bac	; 0x2bac <_ZN7TwoWire17beginTransmissionEi>
	Wire.write(address);        // send register address
     686:	61 2f       	mov	r22, r17
     688:	8e ea       	ldi	r24, 0xAE	; 174
     68a:	93 e0       	ldi	r25, 0x03	; 3
     68c:	0e 94 83 15 	call	0x2b06	; 0x2b06 <_ZN7TwoWire5writeEh>
	Wire.write(val);        // send value to write
     690:	49 81       	ldd	r20, Y+1	; 0x01
     692:	64 2f       	mov	r22, r20
     694:	8e ea       	ldi	r24, 0xAE	; 174
     696:	93 e0       	ldi	r25, 0x03	; 3
     698:	0e 94 83 15 	call	0x2b06	; 0x2b06 <_ZN7TwoWire5writeEh>
	Wire.endTransmission(); //end transmission
     69c:	8e ea       	ldi	r24, 0xAE	; 174
     69e:	93 e0       	ldi	r25, 0x03	; 3
}
     6a0:	0f 90       	pop	r0
     6a2:	df 91       	pop	r29
     6a4:	cf 91       	pop	r28
     6a6:	1f 91       	pop	r17
//Writes val to address register on ACC
void writeTo(int DEVICE, byte address, byte val) {
	Wire.beginTransmission(DEVICE); //start transmission to ACC
	Wire.write(address);        // send register address
	Wire.write(val);        // send value to write
	Wire.endTransmission(); //end transmission
     6a8:	0c 94 55 16 	jmp	0x2caa	; 0x2caa <_ZN7TwoWire15endTransmissionEv>

000006ac <_Z8GyroInitv>:
	* sample rate to = 125Hz
	* parameter to +/- 2000 degrees/sec
	* low pass filter = 5Hz
	* no interrupt
	******************************************/
	writeTo(GYRO, G_PWR_MGM, 0x00);
     6ac:	40 e0       	ldi	r20, 0x00	; 0
     6ae:	6e e3       	ldi	r22, 0x3E	; 62
     6b0:	88 e6       	ldi	r24, 0x68	; 104
     6b2:	90 e0       	ldi	r25, 0x00	; 0
     6b4:	0e 94 36 03 	call	0x66c	; 0x66c <_Z7writeToihh>
	writeTo(GYRO, G_SMPLRT_DIV, 0x07); // EB, 50, 80, 7F, DE, 23, 20, FF
     6b8:	47 e0       	ldi	r20, 0x07	; 7
     6ba:	65 e1       	ldi	r22, 0x15	; 21
     6bc:	88 e6       	ldi	r24, 0x68	; 104
     6be:	90 e0       	ldi	r25, 0x00	; 0
     6c0:	0e 94 36 03 	call	0x66c	; 0x66c <_Z7writeToihh>
	writeTo(GYRO, G_DLPF_FS, 0x1E); // +/- 2000 dgrs/sec, 1KHz, 1E, 19
     6c4:	4e e1       	ldi	r20, 0x1E	; 30
     6c6:	66 e1       	ldi	r22, 0x16	; 22
     6c8:	88 e6       	ldi	r24, 0x68	; 104
     6ca:	90 e0       	ldi	r25, 0x00	; 0
     6cc:	0e 94 36 03 	call	0x66c	; 0x66c <_Z7writeToihh>
	writeTo(GYRO, G_INT_CFG, 0x00);
     6d0:	40 e0       	ldi	r20, 0x00	; 0
     6d2:	67 e1       	ldi	r22, 0x17	; 23
     6d4:	88 e6       	ldi	r24, 0x68	; 104
     6d6:	90 e0       	ldi	r25, 0x00	; 0
     6d8:	0c 94 36 03 	jmp	0x66c	; 0x66c <_Z7writeToihh>

000006dc <setup>:
  public:
    inline HardwareSerial(
      volatile uint8_t *ubrrh, volatile uint8_t *ubrrl,
      volatile uint8_t *ucsra, volatile uint8_t *ucsrb,
      volatile uint8_t *ucsrc, volatile uint8_t *udr);
    void begin(unsigned long baud) { begin(baud, SERIAL_8N1); }
     6dc:	26 e0       	ldi	r18, 0x06	; 6
     6de:	40 e0       	ldi	r20, 0x00	; 0
     6e0:	52 ec       	ldi	r21, 0xC2	; 194
     6e2:	61 e0       	ldi	r22, 0x01	; 1
     6e4:	70 e0       	ldi	r23, 0x00	; 0
     6e6:	88 e0       	ldi	r24, 0x08	; 8
     6e8:	93 e0       	ldi	r25, 0x03	; 3
     6ea:	0e 94 bc 0c 	call	0x1978	; 0x1978 <_ZN14HardwareSerial5beginEmh>
	newlinechar = "\n";
	#endif

		
	Serial.begin(115200);
	Wire.begin();
     6ee:	8e ea       	ldi	r24, 0xAE	; 174
     6f0:	93 e0       	ldi	r25, 0x03	; 3
     6f2:	0e 94 c2 15 	call	0x2b84	; 0x2b84 <_ZN7TwoWire5beginEv>

	MotorsInit();
     6f6:	0e 94 c7 00 	call	0x18e	; 0x18e <_Z10MotorsInitv>
	AccelerometerInit();
     6fa:	0e 94 16 02 	call	0x42c	; 0x42c <_Z17AccelerometerInitv>
	GyroInit();
     6fe:	0e 94 56 03 	call	0x6ac	; 0x6ac <_Z8GyroInitv>
	inputString.reserve(200); // reserve 200 bytes for the inputString:
     702:	68 ec       	ldi	r22, 0xC8	; 200
     704:	70 e0       	ldi	r23, 0x00	; 0
     706:	80 e6       	ldi	r24, 0x60	; 96
     708:	92 e0       	ldi	r25, 0x02	; 2
     70a:	0e 94 bd 11 	call	0x237a	; 0x237a <_ZN6String7reserveEj>

	//Serial.println("start");
	timer = micros();
     70e:	0e 94 fc 0f 	call	0x1ff8	; 0x1ff8 <micros>
     712:	60 93 ea 02 	sts	0x02EA, r22	; 0x8002ea <timer>
     716:	70 93 eb 02 	sts	0x02EB, r23	; 0x8002eb <timer+0x1>
     71a:	80 93 ec 02 	sts	0x02EC, r24	; 0x8002ec <timer+0x2>
     71e:	90 93 ed 02 	sts	0x02ED, r25	; 0x8002ed <timer+0x3>
     722:	08 95       	ret

00000724 <_Z8readFromihiPh>:
	Wire.write(val);        // send value to write
	Wire.endTransmission(); //end transmission
}

//reads num bytes starting from address register on ACC in to buff array
void readFrom(int DEVICE, byte address, int num, byte buff[]) {
     724:	ef 92       	push	r14
     726:	ff 92       	push	r15
     728:	0f 93       	push	r16
     72a:	1f 93       	push	r17
     72c:	cf 93       	push	r28
     72e:	df 93       	push	r29
     730:	00 d0       	rcall	.+0      	; 0x732 <_Z8readFromihiPh+0xe>
     732:	00 d0       	rcall	.+0      	; 0x734 <_Z8readFromihiPh+0x10>
     734:	cd b7       	in	r28, 0x3d	; 61
     736:	de b7       	in	r29, 0x3e	; 62
     738:	7c 01       	movw	r14, r24
     73a:	16 2f       	mov	r17, r22
	Wire.beginTransmission(DEVICE); //start transmission to ACC
     73c:	bc 01       	movw	r22, r24
     73e:	8e ea       	ldi	r24, 0xAE	; 174
     740:	93 e0       	ldi	r25, 0x03	; 3
     742:	2b 83       	std	Y+3, r18	; 0x03
     744:	3c 83       	std	Y+4, r19	; 0x04
     746:	49 83       	std	Y+1, r20	; 0x01
     748:	5a 83       	std	Y+2, r21	; 0x02
     74a:	0e 94 d6 15 	call	0x2bac	; 0x2bac <_ZN7TwoWire17beginTransmissionEi>
	Wire.write(address);        //sends address to read from
     74e:	61 2f       	mov	r22, r17
     750:	8e ea       	ldi	r24, 0xAE	; 174
     752:	93 e0       	ldi	r25, 0x03	; 3
     754:	0e 94 83 15 	call	0x2b06	; 0x2b06 <_ZN7TwoWire5writeEh>
	Wire.endTransmission(); //end transmission
     758:	8e ea       	ldi	r24, 0xAE	; 174
     75a:	93 e0       	ldi	r25, 0x03	; 3
     75c:	0e 94 55 16 	call	0x2caa	; 0x2caa <_ZN7TwoWire15endTransmissionEv>
	
	Wire.beginTransmission(DEVICE); //start transmission to ACC
     760:	b7 01       	movw	r22, r14
     762:	8e ea       	ldi	r24, 0xAE	; 174
     764:	93 e0       	ldi	r25, 0x03	; 3
     766:	0e 94 d6 15 	call	0x2bac	; 0x2bac <_ZN7TwoWire17beginTransmissionEi>
	Wire.requestFrom(DEVICE, num);    // request 6 bytes from ACC
     76a:	49 81       	ldd	r20, Y+1	; 0x01
     76c:	5a 81       	ldd	r21, Y+2	; 0x02
     76e:	b7 01       	movw	r22, r14
     770:	8e ea       	ldi	r24, 0xAE	; 174
     772:	93 e0       	ldi	r25, 0x03	; 3
     774:	0e 94 52 16 	call	0x2ca4	; 0x2ca4 <_ZN7TwoWire11requestFromEii>
     778:	2b 81       	ldd	r18, Y+3	; 0x03
     77a:	02 2f       	mov	r16, r18
     77c:	3c 81       	ldd	r19, Y+4	; 0x04
     77e:	13 2f       	mov	r17, r19
	
	int i = 0;
	while(Wire.available())    //ACC may send less than requested (abnormal)
     780:	8e ea       	ldi	r24, 0xAE	; 174
     782:	93 e0       	ldi	r25, 0x03	; 3
     784:	0e 94 27 15 	call	0x2a4e	; 0x2a4e <_ZN7TwoWire9availableEv>
     788:	89 2b       	or	r24, r25
     78a:	41 f0       	breq	.+16     	; 0x79c <_Z8readFromihiPh+0x78>
	{
		buff[i] = Wire.read(); // receive a byte
     78c:	8e ea       	ldi	r24, 0xAE	; 174
     78e:	93 e0       	ldi	r25, 0x03	; 3
     790:	0e 94 2f 15 	call	0x2a5e	; 0x2a5e <_ZN7TwoWire4readEv>
     794:	f8 01       	movw	r30, r16
     796:	81 93       	st	Z+, r24
     798:	8f 01       	movw	r16, r30
     79a:	f2 cf       	rjmp	.-28     	; 0x780 <_Z8readFromihiPh+0x5c>
		i++;
	}
	Wire.endTransmission(); //end transmission
     79c:	8e ea       	ldi	r24, 0xAE	; 174
     79e:	93 e0       	ldi	r25, 0x03	; 3
}
     7a0:	0f 90       	pop	r0
     7a2:	0f 90       	pop	r0
     7a4:	0f 90       	pop	r0
     7a6:	0f 90       	pop	r0
     7a8:	df 91       	pop	r29
     7aa:	cf 91       	pop	r28
     7ac:	1f 91       	pop	r17
     7ae:	0f 91       	pop	r16
     7b0:	ff 90       	pop	r15
     7b2:	ef 90       	pop	r14
	while(Wire.available())    //ACC may send less than requested (abnormal)
	{
		buff[i] = Wire.read(); // receive a byte
		i++;
	}
	Wire.endTransmission(); //end transmission
     7b4:	0c 94 55 16 	jmp	0x2caa	; 0x2caa <_ZN7TwoWire15endTransmissionEv>

000007b8 <_Z16getGyroscopeDataPi>:
	writeTo(GYRO, G_DLPF_FS, 0x1E); // +/- 2000 dgrs/sec, 1KHz, 1E, 19
	writeTo(GYRO, G_INT_CFG, 0x00);
}

void getGyroscopeData(int * result)
{
     7b8:	0f 93       	push	r16
     7ba:	1f 93       	push	r17
     7bc:	cf 93       	push	r28
     7be:	df 93       	push	r29
     7c0:	cd b7       	in	r28, 0x3d	; 61
     7c2:	de b7       	in	r29, 0x3e	; 62
     7c4:	28 97       	sbiw	r28, 0x08	; 8
     7c6:	0f b6       	in	r0, 0x3f	; 63
     7c8:	f8 94       	cli
     7ca:	de bf       	out	0x3e, r29	; 62
     7cc:	0f be       	out	0x3f, r0	; 63
     7ce:	cd bf       	out	0x3d, r28	; 61
     7d0:	8c 01       	movw	r16, r24
	z axis MSB = 21, z axis LSB = 22
	*************************************/
	int regAddress = 0x1B;
	int temp, x, y, z;
	byte buff[G_TO_READ];
	readFrom(GYRO, regAddress, G_TO_READ, buff); //read the gyro data from the ITG3200
     7d2:	9e 01       	movw	r18, r28
     7d4:	2f 5f       	subi	r18, 0xFF	; 255
     7d6:	3f 4f       	sbci	r19, 0xFF	; 255
     7d8:	48 e0       	ldi	r20, 0x08	; 8
     7da:	50 e0       	ldi	r21, 0x00	; 0
     7dc:	6b e1       	ldi	r22, 0x1B	; 27
     7de:	88 e6       	ldi	r24, 0x68	; 104
     7e0:	90 e0       	ldi	r25, 0x00	; 0
     7e2:	0e 94 92 03 	call	0x724	; 0x724 <_Z8readFromihiPh>
	result[0] = ((buff[2] << 8) | buff[3]) + g_offx;
     7e6:	8b 81       	ldd	r24, Y+3	; 0x03
     7e8:	90 e0       	ldi	r25, 0x00	; 0
     7ea:	98 2f       	mov	r25, r24
     7ec:	88 27       	eor	r24, r24
     7ee:	2c 81       	ldd	r18, Y+4	; 0x04
     7f0:	82 2b       	or	r24, r18
     7f2:	20 91 3c 01 	lds	r18, 0x013C	; 0x80013c <g_offx>
     7f6:	30 91 3d 01 	lds	r19, 0x013D	; 0x80013d <g_offx+0x1>
     7fa:	82 0f       	add	r24, r18
     7fc:	93 1f       	adc	r25, r19
     7fe:	f8 01       	movw	r30, r16
     800:	91 83       	std	Z+1, r25	; 0x01
     802:	80 83       	st	Z, r24
	result[1] = ((buff[4] << 8) | buff[5]) + g_offy;
     804:	8d 81       	ldd	r24, Y+5	; 0x05
     806:	90 e0       	ldi	r25, 0x00	; 0
     808:	98 2f       	mov	r25, r24
     80a:	88 27       	eor	r24, r24
     80c:	2e 81       	ldd	r18, Y+6	; 0x06
     80e:	82 2b       	or	r24, r18
     810:	20 91 3a 01 	lds	r18, 0x013A	; 0x80013a <g_offy>
     814:	30 91 3b 01 	lds	r19, 0x013B	; 0x80013b <g_offy+0x1>
     818:	82 0f       	add	r24, r18
     81a:	93 1f       	adc	r25, r19
     81c:	93 83       	std	Z+3, r25	; 0x03
     81e:	82 83       	std	Z+2, r24	; 0x02
	result[2] = ((buff[6] << 8) | buff[7]) + g_offz;
     820:	2f 81       	ldd	r18, Y+7	; 0x07
     822:	30 e0       	ldi	r19, 0x00	; 0
     824:	32 2f       	mov	r19, r18
     826:	22 27       	eor	r18, r18
     828:	88 85       	ldd	r24, Y+8	; 0x08
     82a:	28 2b       	or	r18, r24
     82c:	80 91 38 01 	lds	r24, 0x0138	; 0x800138 <g_offz>
     830:	90 91 39 01 	lds	r25, 0x0139	; 0x800139 <g_offz+0x1>
     834:	28 0f       	add	r18, r24
     836:	39 1f       	adc	r19, r25
     838:	35 83       	std	Z+5, r19	; 0x05
     83a:	24 83       	std	Z+4, r18	; 0x04
	result[3] = (buff[0] << 8) | buff[1]; // temperature
     83c:	29 81       	ldd	r18, Y+1	; 0x01
     83e:	30 e0       	ldi	r19, 0x00	; 0
     840:	32 2f       	mov	r19, r18
     842:	22 27       	eor	r18, r18
     844:	8a 81       	ldd	r24, Y+2	; 0x02
     846:	28 2b       	or	r18, r24
     848:	37 83       	std	Z+7, r19	; 0x07
     84a:	26 83       	std	Z+6, r18	; 0x06
}
     84c:	28 96       	adiw	r28, 0x08	; 8
     84e:	0f b6       	in	r0, 0x3f	; 63
     850:	f8 94       	cli
     852:	de bf       	out	0x3e, r29	; 62
     854:	0f be       	out	0x3f, r0	; 63
     856:	cd bf       	out	0x3d, r28	; 61
     858:	df 91       	pop	r29
     85a:	cf 91       	pop	r28
     85c:	1f 91       	pop	r17
     85e:	0f 91       	pop	r16
     860:	08 95       	ret

00000862 <_Z8GyroReadv>:

void GyroRead (){
     862:	cf 93       	push	r28
     864:	df 93       	push	r29
     866:	cd b7       	in	r28, 0x3d	; 61
     868:	de b7       	in	r29, 0x3e	; 62
     86a:	28 97       	sbiw	r28, 0x08	; 8
     86c:	0f b6       	in	r0, 0x3f	; 63
     86e:	f8 94       	cli
     870:	de bf       	out	0x3e, r29	; 62
     872:	0f be       	out	0x3f, r0	; 63
     874:	cd bf       	out	0x3d, r28	; 61
	byte addr;
	int gyro[4];
	getGyroscopeData(gyro);
     876:	ce 01       	movw	r24, r28
     878:	01 96       	adiw	r24, 0x01	; 1
     87a:	0e 94 dc 03 	call	0x7b8	; 0x7b8 <_Z16getGyroscopeDataPi>
	gyroX = gyro[0] / 14.375; //convert to degrees per second
     87e:	69 81       	ldd	r22, Y+1	; 0x01
     880:	7a 81       	ldd	r23, Y+2	; 0x02
     882:	07 2e       	mov	r0, r23
     884:	00 0c       	add	r0, r0
     886:	88 0b       	sbc	r24, r24
     888:	99 0b       	sbc	r25, r25
     88a:	0e 94 46 0a 	call	0x148c	; 0x148c <__floatsisf>
     88e:	20 e0       	ldi	r18, 0x00	; 0
     890:	30 e0       	ldi	r19, 0x00	; 0
     892:	46 e6       	ldi	r20, 0x66	; 102
     894:	51 e4       	ldi	r21, 0x41	; 65
     896:	0e 94 9c 09 	call	0x1338	; 0x1338 <__divsf3>
     89a:	60 93 8a 02 	sts	0x028A, r22	; 0x80028a <gyroX>
     89e:	70 93 8b 02 	sts	0x028B, r23	; 0x80028b <gyroX+0x1>
     8a2:	80 93 8c 02 	sts	0x028C, r24	; 0x80028c <gyroX+0x2>
     8a6:	90 93 8d 02 	sts	0x028D, r25	; 0x80028d <gyroX+0x3>
	gyroY = gyro[1] / 14.375;
     8aa:	6b 81       	ldd	r22, Y+3	; 0x03
     8ac:	7c 81       	ldd	r23, Y+4	; 0x04
     8ae:	07 2e       	mov	r0, r23
     8b0:	00 0c       	add	r0, r0
     8b2:	88 0b       	sbc	r24, r24
     8b4:	99 0b       	sbc	r25, r25
     8b6:	0e 94 46 0a 	call	0x148c	; 0x148c <__floatsisf>
     8ba:	20 e0       	ldi	r18, 0x00	; 0
     8bc:	30 e0       	ldi	r19, 0x00	; 0
     8be:	46 e6       	ldi	r20, 0x66	; 102
     8c0:	51 e4       	ldi	r21, 0x41	; 65
     8c2:	0e 94 9c 09 	call	0x1338	; 0x1338 <__divsf3>
     8c6:	60 93 86 02 	sts	0x0286, r22	; 0x800286 <gyroY>
     8ca:	70 93 87 02 	sts	0x0287, r23	; 0x800287 <gyroY+0x1>
     8ce:	80 93 88 02 	sts	0x0288, r24	; 0x800288 <gyroY+0x2>
     8d2:	90 93 89 02 	sts	0x0289, r25	; 0x800289 <gyroY+0x3>
	gyroZ = gyro[2] / 14.375;
     8d6:	6d 81       	ldd	r22, Y+5	; 0x05
     8d8:	7e 81       	ldd	r23, Y+6	; 0x06
     8da:	07 2e       	mov	r0, r23
     8dc:	00 0c       	add	r0, r0
     8de:	88 0b       	sbc	r24, r24
     8e0:	99 0b       	sbc	r25, r25
     8e2:	0e 94 46 0a 	call	0x148c	; 0x148c <__floatsisf>
     8e6:	20 e0       	ldi	r18, 0x00	; 0
     8e8:	30 e0       	ldi	r19, 0x00	; 0
     8ea:	46 e6       	ldi	r20, 0x66	; 102
     8ec:	51 e4       	ldi	r21, 0x41	; 65
     8ee:	0e 94 9c 09 	call	0x1338	; 0x1338 <__divsf3>
     8f2:	60 93 82 02 	sts	0x0282, r22	; 0x800282 <gyroZ>
     8f6:	70 93 83 02 	sts	0x0283, r23	; 0x800283 <gyroZ+0x1>
     8fa:	80 93 84 02 	sts	0x0284, r24	; 0x800284 <gyroZ+0x2>
     8fe:	90 93 85 02 	sts	0x0285, r25	; 0x800285 <gyroZ+0x3>
	truetemp = 35+ ((double) (gyro[3] + 13200)) / 280; // temperature
     902:	6f 81       	ldd	r22, Y+7	; 0x07
     904:	78 85       	ldd	r23, Y+8	; 0x08
     906:	60 57       	subi	r22, 0x70	; 112
     908:	7c 4c       	sbci	r23, 0xCC	; 204
     90a:	07 2e       	mov	r0, r23
     90c:	00 0c       	add	r0, r0
     90e:	88 0b       	sbc	r24, r24
     910:	99 0b       	sbc	r25, r25
     912:	0e 94 46 0a 	call	0x148c	; 0x148c <__floatsisf>
     916:	20 e0       	ldi	r18, 0x00	; 0
     918:	30 e0       	ldi	r19, 0x00	; 0
     91a:	4c e8       	ldi	r20, 0x8C	; 140
     91c:	53 e4       	ldi	r21, 0x43	; 67
     91e:	0e 94 9c 09 	call	0x1338	; 0x1338 <__divsf3>
     922:	20 e0       	ldi	r18, 0x00	; 0
     924:	30 e0       	ldi	r19, 0x00	; 0
     926:	4c e0       	ldi	r20, 0x0C	; 12
     928:	52 e4       	ldi	r21, 0x42	; 66
     92a:	0e 94 b9 08 	call	0x1172	; 0x1172 <__addsf3>
     92e:	0e 94 0e 0a 	call	0x141c	; 0x141c <__fixsfsi>
     932:	70 93 ef 02 	sts	0x02EF, r23	; 0x8002ef <truetemp+0x1>
     936:	60 93 ee 02 	sts	0x02EE, r22	; 0x8002ee <truetemp>
	Serial.println("C");
	//delay(500);
	#endif

	
}
     93a:	28 96       	adiw	r28, 0x08	; 8
     93c:	0f b6       	in	r0, 0x3f	; 63
     93e:	f8 94       	cli
     940:	de bf       	out	0x3e, r29	; 62
     942:	0f be       	out	0x3f, r0	; 63
     944:	cd bf       	out	0x3d, r28	; 61
     946:	df 91       	pop	r29
     948:	cf 91       	pop	r28
     94a:	08 95       	ret

0000094c <_Z10sensorloopi>:
	Serial.print(" RB ");
	Serial.println(speedFromPC[3]);
}

void sensorloop(int printout)
{
     94c:	2f 92       	push	r2
     94e:	3f 92       	push	r3
     950:	4f 92       	push	r4
     952:	5f 92       	push	r5
     954:	6f 92       	push	r6
     956:	7f 92       	push	r7
     958:	8f 92       	push	r8
     95a:	9f 92       	push	r9
     95c:	af 92       	push	r10
     95e:	bf 92       	push	r11
     960:	cf 92       	push	r12
     962:	df 92       	push	r13
     964:	ef 92       	push	r14
     966:	ff 92       	push	r15
     968:	0f 93       	push	r16
     96a:	1f 93       	push	r17
     96c:	cf 93       	push	r28
     96e:	df 93       	push	r29
     970:	cd b7       	in	r28, 0x3d	; 61
     972:	de b7       	in	r29, 0x3e	; 62
     974:	e8 97       	sbiw	r28, 0x38	; 56
     976:	0f b6       	in	r0, 0x3f	; 63
     978:	f8 94       	cli
     97a:	de bf       	out	0x3e, r29	; 62
     97c:	0f be       	out	0x3f, r0	; 63
     97e:	cd bf       	out	0x3d, r28	; 61
     980:	1c 01       	movw	r2, r24
	
	AccelerometerRead();
     982:	0e 94 c5 02 	call	0x58a	; 0x58a <_Z17AccelerometerReadv>
	GyroRead();
     986:	0e 94 31 04 	call	0x862	; 0x862 <_Z8GyroReadv>
	
	double dt = (double)(micros() - timer) / 1000000; // Calculate delta time
     98a:	0e 94 fc 0f 	call	0x1ff8	; 0x1ff8 <micros>
     98e:	c0 90 ea 02 	lds	r12, 0x02EA	; 0x8002ea <timer>
     992:	d0 90 eb 02 	lds	r13, 0x02EB	; 0x8002eb <timer+0x1>
     996:	e0 90 ec 02 	lds	r14, 0x02EC	; 0x8002ec <timer+0x2>
     99a:	f0 90 ed 02 	lds	r15, 0x02ED	; 0x8002ed <timer+0x3>
     99e:	6c 19       	sub	r22, r12
     9a0:	7d 09       	sbc	r23, r13
     9a2:	8e 09       	sbc	r24, r14
     9a4:	9f 09       	sbc	r25, r15
     9a6:	0e 94 44 0a 	call	0x1488	; 0x1488 <__floatunsisf>
     9aa:	20 e0       	ldi	r18, 0x00	; 0
     9ac:	34 e2       	ldi	r19, 0x24	; 36
     9ae:	44 e7       	ldi	r20, 0x74	; 116
     9b0:	59 e4       	ldi	r21, 0x49	; 73
     9b2:	0e 94 9c 09 	call	0x1338	; 0x1338 <__divsf3>
     9b6:	69 a7       	std	Y+41, r22	; 0x29
     9b8:	7a a7       	std	Y+42, r23	; 0x2a
     9ba:	8b a7       	std	Y+43, r24	; 0x2b
     9bc:	9c a7       	std	Y+44, r25	; 0x2c
	timer = micros();
     9be:	0e 94 fc 0f 	call	0x1ff8	; 0x1ff8 <micros>
     9c2:	60 93 ea 02 	sts	0x02EA, r22	; 0x8002ea <timer>
     9c6:	70 93 eb 02 	sts	0x02EB, r23	; 0x8002eb <timer+0x1>
     9ca:	80 93 ec 02 	sts	0x02EC, r24	; 0x8002ec <timer+0x2>
     9ce:	90 93 ed 02 	sts	0x02ED, r25	; 0x8002ed <timer+0x3>

	// Source: http://www.freescale.com/files/sensors/doc/app_note/AN3461.pdf eq. 25 and eq. 26
	// atan2 outputs the value of - to  (radians) - see http://en.wikipedia.org/wiki/Atan2
	// It is then converted from radians to degrees
	#ifdef RESTRICT_PITCH // Eq. 25 and 26
	double roll  = atan2(accY, accZ) * RAD_TO_DEG;
     9d2:	c0 90 8e 02 	lds	r12, 0x028E	; 0x80028e <accZ>
     9d6:	d0 90 8f 02 	lds	r13, 0x028F	; 0x80028f <accZ+0x1>
     9da:	e0 90 90 02 	lds	r14, 0x0290	; 0x800290 <accZ+0x2>
     9de:	f0 90 91 02 	lds	r15, 0x0291	; 0x800291 <accZ+0x3>
     9e2:	80 90 92 02 	lds	r8, 0x0292	; 0x800292 <accY>
     9e6:	90 90 93 02 	lds	r9, 0x0293	; 0x800293 <accY+0x1>
     9ea:	a0 90 94 02 	lds	r10, 0x0294	; 0x800294 <accY+0x2>
     9ee:	b0 90 95 02 	lds	r11, 0x0295	; 0x800295 <accY+0x3>
     9f2:	a7 01       	movw	r20, r14
     9f4:	96 01       	movw	r18, r12
     9f6:	c5 01       	movw	r24, r10
     9f8:	b4 01       	movw	r22, r8
     9fa:	0e 94 38 09 	call	0x1270	; 0x1270 <atan2>
     9fe:	21 ee       	ldi	r18, 0xE1	; 225
     a00:	3e e2       	ldi	r19, 0x2E	; 46
     a02:	45 e6       	ldi	r20, 0x65	; 101
     a04:	52 e4       	ldi	r21, 0x42	; 66
     a06:	0e 94 2a 0b 	call	0x1654	; 0x1654 <__mulsf3>
     a0a:	2b 01       	movw	r4, r22
     a0c:	3c 01       	movw	r6, r24
	double pitch = atan(-accX / sqrt(accY * accY + accZ * accZ)) * RAD_TO_DEG;
     a0e:	a5 01       	movw	r20, r10
     a10:	94 01       	movw	r18, r8
     a12:	c5 01       	movw	r24, r10
     a14:	b4 01       	movw	r22, r8
     a16:	0e 94 2a 0b 	call	0x1654	; 0x1654 <__mulsf3>
     a1a:	4b 01       	movw	r8, r22
     a1c:	5c 01       	movw	r10, r24
     a1e:	a7 01       	movw	r20, r14
     a20:	96 01       	movw	r18, r12
     a22:	c7 01       	movw	r24, r14
     a24:	b6 01       	movw	r22, r12
     a26:	0e 94 2a 0b 	call	0x1654	; 0x1654 <__mulsf3>
     a2a:	9b 01       	movw	r18, r22
     a2c:	ac 01       	movw	r20, r24
     a2e:	c5 01       	movw	r24, r10
     a30:	b4 01       	movw	r22, r8
     a32:	0e 94 b9 08 	call	0x1172	; 0x1172 <__addsf3>
     a36:	0e 94 9d 0b 	call	0x173a	; 0x173a <sqrt>
     a3a:	9b 01       	movw	r18, r22
     a3c:	ac 01       	movw	r20, r24
     a3e:	80 91 96 02 	lds	r24, 0x0296	; 0x800296 <accX>
     a42:	90 91 97 02 	lds	r25, 0x0297	; 0x800297 <accX+0x1>
     a46:	a0 91 98 02 	lds	r26, 0x0298	; 0x800298 <accX+0x2>
     a4a:	b0 91 99 02 	lds	r27, 0x0299	; 0x800299 <accX+0x3>
     a4e:	bc 01       	movw	r22, r24
     a50:	cd 01       	movw	r24, r26
     a52:	90 58       	subi	r25, 0x80	; 128
     a54:	0e 94 9c 09 	call	0x1338	; 0x1338 <__divsf3>
     a58:	0e 94 68 09 	call	0x12d0	; 0x12d0 <atan>
     a5c:	21 ee       	ldi	r18, 0xE1	; 225
     a5e:	3e e2       	ldi	r19, 0x2E	; 46
     a60:	45 e6       	ldi	r20, 0x65	; 101
     a62:	52 e4       	ldi	r21, 0x42	; 66
     a64:	0e 94 2a 0b 	call	0x1654	; 0x1654 <__mulsf3>
     a68:	69 ab       	std	Y+49, r22	; 0x31
     a6a:	7a ab       	std	Y+50, r23	; 0x32
     a6c:	8b ab       	std	Y+51, r24	; 0x33
     a6e:	9c ab       	std	Y+52, r25	; 0x34
	#else // Eq. 28 and 29
	double roll  = atan(accY / sqrt(accX * accX + accZ * accZ)) * RAD_TO_DEG;
	double pitch = atan2(-accX, accZ) * RAD_TO_DEG;
	#endif

	double gyroXrate = gyroX / 131.0; // Convert to deg/s
     a70:	20 e0       	ldi	r18, 0x00	; 0
     a72:	30 e0       	ldi	r19, 0x00	; 0
     a74:	43 e0       	ldi	r20, 0x03	; 3
     a76:	53 e4       	ldi	r21, 0x43	; 67
     a78:	60 91 8a 02 	lds	r22, 0x028A	; 0x80028a <gyroX>
     a7c:	70 91 8b 02 	lds	r23, 0x028B	; 0x80028b <gyroX+0x1>
     a80:	80 91 8c 02 	lds	r24, 0x028C	; 0x80028c <gyroX+0x2>
     a84:	90 91 8d 02 	lds	r25, 0x028D	; 0x80028d <gyroX+0x3>
     a88:	0e 94 9c 09 	call	0x1338	; 0x1338 <__divsf3>
     a8c:	6d a3       	std	Y+37, r22	; 0x25
     a8e:	7e a3       	std	Y+38, r23	; 0x26
     a90:	8f a3       	std	Y+39, r24	; 0x27
     a92:	98 a7       	std	Y+40, r25	; 0x28
	double gyroYrate = gyroY / 131.0; // Convert to deg/s
     a94:	20 e0       	ldi	r18, 0x00	; 0
     a96:	30 e0       	ldi	r19, 0x00	; 0
     a98:	43 e0       	ldi	r20, 0x03	; 3
     a9a:	53 e4       	ldi	r21, 0x43	; 67
     a9c:	60 91 86 02 	lds	r22, 0x0286	; 0x800286 <gyroY>
     aa0:	70 91 87 02 	lds	r23, 0x0287	; 0x800287 <gyroY+0x1>
     aa4:	80 91 88 02 	lds	r24, 0x0288	; 0x800288 <gyroY+0x2>
     aa8:	90 91 89 02 	lds	r25, 0x0289	; 0x800289 <gyroY+0x3>
     aac:	0e 94 9c 09 	call	0x1338	; 0x1338 <__divsf3>
     ab0:	4b 01       	movw	r8, r22
     ab2:	5c 01       	movw	r10, r24

	#ifdef RESTRICT_PITCH
	// This fixes the transition problem when the accelerometer angle jumps between -180 and 180 degrees
	if ((roll < -90 && kalAngleX > 90) || (roll > 90 && kalAngleX < -90)) {
     ab4:	20 e0       	ldi	r18, 0x00	; 0
     ab6:	30 e0       	ldi	r19, 0x00	; 0
     ab8:	44 eb       	ldi	r20, 0xB4	; 180
     aba:	52 ec       	ldi	r21, 0xC2	; 194
     abc:	c3 01       	movw	r24, r6
     abe:	b2 01       	movw	r22, r4
     ac0:	0e 94 97 09 	call	0x132e	; 0x132e <__cmpsf2>
     ac4:	87 ff       	sbrs	r24, 7
     ac6:	10 c0       	rjmp	.+32     	; 0xae8 <_Z10sensorloopi+0x19c>
     ac8:	20 e0       	ldi	r18, 0x00	; 0
     aca:	30 e0       	ldi	r19, 0x00	; 0
     acc:	44 eb       	ldi	r20, 0xB4	; 180
     ace:	52 e4       	ldi	r21, 0x42	; 66
     ad0:	60 91 6e 02 	lds	r22, 0x026E	; 0x80026e <kalAngleX>
     ad4:	70 91 6f 02 	lds	r23, 0x026F	; 0x80026f <kalAngleX+0x1>
     ad8:	80 91 70 02 	lds	r24, 0x0270	; 0x800270 <kalAngleX+0x2>
     adc:	90 91 71 02 	lds	r25, 0x0271	; 0x800271 <kalAngleX+0x3>
     ae0:	0e 94 1d 0b 	call	0x163a	; 0x163a <__gesf2>
     ae4:	18 16       	cp	r1, r24
     ae6:	d4 f0       	brlt	.+52     	; 0xb1c <_Z10sensorloopi+0x1d0>
     ae8:	20 e0       	ldi	r18, 0x00	; 0
     aea:	30 e0       	ldi	r19, 0x00	; 0
     aec:	44 eb       	ldi	r20, 0xB4	; 180
     aee:	52 e4       	ldi	r21, 0x42	; 66
     af0:	c3 01       	movw	r24, r6
     af2:	b2 01       	movw	r22, r4
     af4:	0e 94 1d 0b 	call	0x163a	; 0x163a <__gesf2>
     af8:	18 16       	cp	r1, r24
     afa:	7c f5       	brge	.+94     	; 0xb5a <_Z10sensorloopi+0x20e>
     afc:	20 e0       	ldi	r18, 0x00	; 0
     afe:	30 e0       	ldi	r19, 0x00	; 0
     b00:	44 eb       	ldi	r20, 0xB4	; 180
     b02:	52 ec       	ldi	r21, 0xC2	; 194
     b04:	60 91 6e 02 	lds	r22, 0x026E	; 0x80026e <kalAngleX>
     b08:	70 91 6f 02 	lds	r23, 0x026F	; 0x80026f <kalAngleX+0x1>
     b0c:	80 91 70 02 	lds	r24, 0x0270	; 0x800270 <kalAngleX+0x2>
     b10:	90 91 71 02 	lds	r25, 0x0271	; 0x800271 <kalAngleX+0x3>
     b14:	0e 94 97 09 	call	0x132e	; 0x132e <__cmpsf2>
     b18:	87 ff       	sbrs	r24, 7
     b1a:	1f c0       	rjmp	.+62     	; 0xb5a <_Z10sensorloopi+0x20e>
		kalmanX.setAngle(roll);
     b1c:	b3 01       	movw	r22, r6
     b1e:	a2 01       	movw	r20, r4
     b20:	82 ec       	ldi	r24, 0xC2	; 194
     b22:	92 e0       	ldi	r25, 0x02	; 2
     b24:	0e 94 21 15 	call	0x2a42	; 0x2a42 <_ZN6Kalman8setAngleEf>
		compAngleX = roll;
     b28:	40 92 76 02 	sts	0x0276, r4	; 0x800276 <compAngleX>
     b2c:	50 92 77 02 	sts	0x0277, r5	; 0x800277 <compAngleX+0x1>
     b30:	60 92 78 02 	sts	0x0278, r6	; 0x800278 <compAngleX+0x2>
     b34:	70 92 79 02 	sts	0x0279, r7	; 0x800279 <compAngleX+0x3>
		kalAngleX = roll;
     b38:	40 92 6e 02 	sts	0x026E, r4	; 0x80026e <kalAngleX>
     b3c:	50 92 6f 02 	sts	0x026F, r5	; 0x80026f <kalAngleX+0x1>
     b40:	60 92 70 02 	sts	0x0270, r6	; 0x800270 <kalAngleX+0x2>
     b44:	70 92 71 02 	sts	0x0271, r7	; 0x800271 <kalAngleX+0x3>
		gyroXangle = roll;
     b48:	40 92 7e 02 	sts	0x027E, r4	; 0x80027e <gyroXangle>
     b4c:	50 92 7f 02 	sts	0x027F, r5	; 0x80027f <gyroXangle+0x1>
     b50:	60 92 80 02 	sts	0x0280, r6	; 0x800280 <gyroXangle+0x2>
     b54:	70 92 81 02 	sts	0x0281, r7	; 0x800281 <gyroXangle+0x3>
     b58:	16 c0       	rjmp	.+44     	; 0xb86 <_Z10sensorloopi+0x23a>
	} else
	kalAngleX = kalmanX.getAngle(roll, gyroXrate, dt); // Calculate the angle using a Kalman filter
     b5a:	c9 a4       	ldd	r12, Y+41	; 0x29
     b5c:	da a4       	ldd	r13, Y+42	; 0x2a
     b5e:	eb a4       	ldd	r14, Y+43	; 0x2b
     b60:	fc a4       	ldd	r15, Y+44	; 0x2c
     b62:	0d a1       	ldd	r16, Y+37	; 0x25
     b64:	1e a1       	ldd	r17, Y+38	; 0x26
     b66:	2f a1       	ldd	r18, Y+39	; 0x27
     b68:	38 a5       	ldd	r19, Y+40	; 0x28
     b6a:	b3 01       	movw	r22, r6
     b6c:	a2 01       	movw	r20, r4
     b6e:	82 ec       	ldi	r24, 0xC2	; 194
     b70:	92 e0       	ldi	r25, 0x02	; 2
     b72:	0e 94 a2 13 	call	0x2744	; 0x2744 <_ZN6Kalman8getAngleEfff>
     b76:	60 93 6e 02 	sts	0x026E, r22	; 0x80026e <kalAngleX>
     b7a:	70 93 6f 02 	sts	0x026F, r23	; 0x80026f <kalAngleX+0x1>
     b7e:	80 93 70 02 	sts	0x0270, r24	; 0x800270 <kalAngleX+0x2>
     b82:	90 93 71 02 	sts	0x0271, r25	; 0x800271 <kalAngleX+0x3>

	if (abs(kalAngleX) > 90)
     b86:	c0 90 6e 02 	lds	r12, 0x026E	; 0x80026e <kalAngleX>
     b8a:	d0 90 6f 02 	lds	r13, 0x026F	; 0x80026f <kalAngleX+0x1>
     b8e:	e0 90 70 02 	lds	r14, 0x0270	; 0x800270 <kalAngleX+0x2>
     b92:	f0 90 71 02 	lds	r15, 0x0271	; 0x800271 <kalAngleX+0x3>
     b96:	20 e0       	ldi	r18, 0x00	; 0
     b98:	30 e0       	ldi	r19, 0x00	; 0
     b9a:	a9 01       	movw	r20, r18
     b9c:	c7 01       	movw	r24, r14
     b9e:	b6 01       	movw	r22, r12
     ba0:	0e 94 1d 0b 	call	0x163a	; 0x163a <__gesf2>
     ba4:	18 16       	cp	r1, r24
     ba6:	5c f4       	brge	.+22     	; 0xbbe <_Z10sensorloopi+0x272>
     ba8:	20 e0       	ldi	r18, 0x00	; 0
     baa:	30 e0       	ldi	r19, 0x00	; 0
     bac:	44 eb       	ldi	r20, 0xB4	; 180
     bae:	52 e4       	ldi	r21, 0x42	; 66
     bb0:	c7 01       	movw	r24, r14
     bb2:	b6 01       	movw	r22, r12
     bb4:	0e 94 1d 0b 	call	0x163a	; 0x163a <__gesf2>
     bb8:	18 16       	cp	r1, r24
     bba:	5c f0       	brlt	.+22     	; 0xbd2 <_Z10sensorloopi+0x286>
     bbc:	0e c0       	rjmp	.+28     	; 0xbda <_Z10sensorloopi+0x28e>
     bbe:	20 e0       	ldi	r18, 0x00	; 0
     bc0:	30 e0       	ldi	r19, 0x00	; 0
     bc2:	44 eb       	ldi	r20, 0xB4	; 180
     bc4:	52 ec       	ldi	r21, 0xC2	; 194
     bc6:	c7 01       	movw	r24, r14
     bc8:	b6 01       	movw	r22, r12
     bca:	0e 94 97 09 	call	0x132e	; 0x132e <__cmpsf2>
     bce:	87 ff       	sbrs	r24, 7
     bd0:	04 c0       	rjmp	.+8      	; 0xbda <_Z10sensorloopi+0x28e>
	gyroYrate = -gyroYrate; // Invert rate, so it fits the restriced accelerometer reading
     bd2:	b7 fa       	bst	r11, 7
     bd4:	b0 94       	com	r11
     bd6:	b7 f8       	bld	r11, 7
     bd8:	b0 94       	com	r11
	kalAngleY = kalmanY.getAngle(pitch, gyroYrate, dt);
     bda:	c9 a4       	ldd	r12, Y+41	; 0x29
     bdc:	da a4       	ldd	r13, Y+42	; 0x2a
     bde:	eb a4       	ldd	r14, Y+43	; 0x2b
     be0:	fc a4       	ldd	r15, Y+44	; 0x2c
     be2:	95 01       	movw	r18, r10
     be4:	84 01       	movw	r16, r8
     be6:	49 a9       	ldd	r20, Y+49	; 0x31
     be8:	5a a9       	ldd	r21, Y+50	; 0x32
     bea:	6b a9       	ldd	r22, Y+51	; 0x33
     bec:	7c a9       	ldd	r23, Y+52	; 0x34
     bee:	8a e9       	ldi	r24, 0x9A	; 154
     bf0:	92 e0       	ldi	r25, 0x02	; 2
     bf2:	0e 94 a2 13 	call	0x2744	; 0x2744 <_ZN6Kalman8getAngleEfff>
     bf6:	6d ab       	std	Y+53, r22	; 0x35
     bf8:	7e ab       	std	Y+54, r23	; 0x36
     bfa:	8f ab       	std	Y+55, r24	; 0x37
     bfc:	98 af       	std	Y+56, r25	; 0x38
     bfe:	60 93 6a 02 	sts	0x026A, r22	; 0x80026a <kalAngleY>
     c02:	70 93 6b 02 	sts	0x026B, r23	; 0x80026b <kalAngleY+0x1>
     c06:	80 93 6c 02 	sts	0x026C, r24	; 0x80026c <kalAngleY+0x2>
     c0a:	90 93 6d 02 	sts	0x026D, r25	; 0x80026d <kalAngleY+0x3>
	if (abs(kalAngleY) > 90)
	gyroXrate = -gyroXrate; // Invert rate, so it fits the restriced accelerometer reading
	kalAngleX = kalmanX.getAngle(roll, gyroXrate, dt); // Calculate the angle using a Kalman filter
	#endif

	gyroXangle += gyroXrate * dt; // Calculate gyro angle without any filter
     c0e:	29 a5       	ldd	r18, Y+41	; 0x29
     c10:	3a a5       	ldd	r19, Y+42	; 0x2a
     c12:	4b a5       	ldd	r20, Y+43	; 0x2b
     c14:	5c a5       	ldd	r21, Y+44	; 0x2c
     c16:	6d a1       	ldd	r22, Y+37	; 0x25
     c18:	7e a1       	ldd	r23, Y+38	; 0x26
     c1a:	8f a1       	ldd	r24, Y+39	; 0x27
     c1c:	98 a5       	ldd	r25, Y+40	; 0x28
     c1e:	0e 94 2a 0b 	call	0x1654	; 0x1654 <__mulsf3>
     c22:	6d a7       	std	Y+45, r22	; 0x2d
     c24:	7e a7       	std	Y+46, r23	; 0x2e
     c26:	8f a7       	std	Y+47, r24	; 0x2f
     c28:	98 ab       	std	Y+48, r25	; 0x30
     c2a:	20 91 7e 02 	lds	r18, 0x027E	; 0x80027e <gyroXangle>
     c2e:	30 91 7f 02 	lds	r19, 0x027F	; 0x80027f <gyroXangle+0x1>
     c32:	40 91 80 02 	lds	r20, 0x0280	; 0x800280 <gyroXangle+0x2>
     c36:	50 91 81 02 	lds	r21, 0x0281	; 0x800281 <gyroXangle+0x3>
     c3a:	0e 94 b9 08 	call	0x1172	; 0x1172 <__addsf3>
     c3e:	6d a3       	std	Y+37, r22	; 0x25
     c40:	7e a3       	std	Y+38, r23	; 0x26
     c42:	8f a3       	std	Y+39, r24	; 0x27
     c44:	98 a7       	std	Y+40, r25	; 0x28
     c46:	60 93 7e 02 	sts	0x027E, r22	; 0x80027e <gyroXangle>
     c4a:	70 93 7f 02 	sts	0x027F, r23	; 0x80027f <gyroXangle+0x1>
     c4e:	80 93 80 02 	sts	0x0280, r24	; 0x800280 <gyroXangle+0x2>
     c52:	90 93 81 02 	sts	0x0281, r25	; 0x800281 <gyroXangle+0x3>
	gyroYangle += gyroYrate * dt;
     c56:	29 a5       	ldd	r18, Y+41	; 0x29
     c58:	3a a5       	ldd	r19, Y+42	; 0x2a
     c5a:	4b a5       	ldd	r20, Y+43	; 0x2b
     c5c:	5c a5       	ldd	r21, Y+44	; 0x2c
     c5e:	c5 01       	movw	r24, r10
     c60:	b4 01       	movw	r22, r8
     c62:	0e 94 2a 0b 	call	0x1654	; 0x1654 <__mulsf3>
     c66:	6b 01       	movw	r12, r22
     c68:	7c 01       	movw	r14, r24
     c6a:	20 91 7a 02 	lds	r18, 0x027A	; 0x80027a <gyroYangle>
     c6e:	30 91 7b 02 	lds	r19, 0x027B	; 0x80027b <gyroYangle+0x1>
     c72:	40 91 7c 02 	lds	r20, 0x027C	; 0x80027c <gyroYangle+0x2>
     c76:	50 91 7d 02 	lds	r21, 0x027D	; 0x80027d <gyroYangle+0x3>
     c7a:	0e 94 b9 08 	call	0x1172	; 0x1172 <__addsf3>
     c7e:	4b 01       	movw	r8, r22
     c80:	5c 01       	movw	r10, r24
     c82:	60 93 7a 02 	sts	0x027A, r22	; 0x80027a <gyroYangle>
     c86:	70 93 7b 02 	sts	0x027B, r23	; 0x80027b <gyroYangle+0x1>
     c8a:	80 93 7c 02 	sts	0x027C, r24	; 0x80027c <gyroYangle+0x2>
     c8e:	90 93 7d 02 	sts	0x027D, r25	; 0x80027d <gyroYangle+0x3>
	//gyroXangle += kalmanX.getRate() * dt; // Calculate gyro angle using the unbiased rate
	//gyroYangle += kalmanY.getRate() * dt;

	compAngleX = 0.93 * (compAngleX + gyroXrate * dt) + 0.07 * roll; // Calculate the angle using a Complimentary filter
     c92:	20 91 76 02 	lds	r18, 0x0276	; 0x800276 <compAngleX>
     c96:	30 91 77 02 	lds	r19, 0x0277	; 0x800277 <compAngleX+0x1>
     c9a:	40 91 78 02 	lds	r20, 0x0278	; 0x800278 <compAngleX+0x2>
     c9e:	50 91 79 02 	lds	r21, 0x0279	; 0x800279 <compAngleX+0x3>
     ca2:	6d a5       	ldd	r22, Y+45	; 0x2d
     ca4:	7e a5       	ldd	r23, Y+46	; 0x2e
     ca6:	8f a5       	ldd	r24, Y+47	; 0x2f
     ca8:	98 a9       	ldd	r25, Y+48	; 0x30
     caa:	0e 94 b9 08 	call	0x1172	; 0x1172 <__addsf3>
     cae:	2b e7       	ldi	r18, 0x7B	; 123
     cb0:	34 e1       	ldi	r19, 0x14	; 20
     cb2:	4e e6       	ldi	r20, 0x6E	; 110
     cb4:	5f e3       	ldi	r21, 0x3F	; 63
     cb6:	0e 94 2a 0b 	call	0x1654	; 0x1654 <__mulsf3>
     cba:	6d a7       	std	Y+45, r22	; 0x2d
     cbc:	7e a7       	std	Y+46, r23	; 0x2e
     cbe:	8f a7       	std	Y+47, r24	; 0x2f
     cc0:	98 ab       	std	Y+48, r25	; 0x30
     cc2:	29 e2       	ldi	r18, 0x29	; 41
     cc4:	3c e5       	ldi	r19, 0x5C	; 92
     cc6:	4f e8       	ldi	r20, 0x8F	; 143
     cc8:	5d e3       	ldi	r21, 0x3D	; 61
     cca:	c3 01       	movw	r24, r6
     ccc:	b2 01       	movw	r22, r4
     cce:	0e 94 2a 0b 	call	0x1654	; 0x1654 <__mulsf3>
     cd2:	9b 01       	movw	r18, r22
     cd4:	ac 01       	movw	r20, r24
     cd6:	6d a5       	ldd	r22, Y+45	; 0x2d
     cd8:	7e a5       	ldd	r23, Y+46	; 0x2e
     cda:	8f a5       	ldd	r24, Y+47	; 0x2f
     cdc:	98 a9       	ldd	r25, Y+48	; 0x30
     cde:	0e 94 b9 08 	call	0x1172	; 0x1172 <__addsf3>
     ce2:	60 93 76 02 	sts	0x0276, r22	; 0x800276 <compAngleX>
     ce6:	70 93 77 02 	sts	0x0277, r23	; 0x800277 <compAngleX+0x1>
     cea:	80 93 78 02 	sts	0x0278, r24	; 0x800278 <compAngleX+0x2>
     cee:	90 93 79 02 	sts	0x0279, r25	; 0x800279 <compAngleX+0x3>
	compAngleY = 0.93 * (compAngleY + gyroYrate * dt) + 0.07 * pitch;
     cf2:	20 91 72 02 	lds	r18, 0x0272	; 0x800272 <compAngleY>
     cf6:	30 91 73 02 	lds	r19, 0x0273	; 0x800273 <compAngleY+0x1>
     cfa:	40 91 74 02 	lds	r20, 0x0274	; 0x800274 <compAngleY+0x2>
     cfe:	50 91 75 02 	lds	r21, 0x0275	; 0x800275 <compAngleY+0x3>
     d02:	c7 01       	movw	r24, r14
     d04:	b6 01       	movw	r22, r12
     d06:	0e 94 b9 08 	call	0x1172	; 0x1172 <__addsf3>
     d0a:	2b e7       	ldi	r18, 0x7B	; 123
     d0c:	34 e1       	ldi	r19, 0x14	; 20
     d0e:	4e e6       	ldi	r20, 0x6E	; 110
     d10:	5f e3       	ldi	r21, 0x3F	; 63
     d12:	0e 94 2a 0b 	call	0x1654	; 0x1654 <__mulsf3>
     d16:	6b 01       	movw	r12, r22
     d18:	7c 01       	movw	r14, r24
     d1a:	29 e2       	ldi	r18, 0x29	; 41
     d1c:	3c e5       	ldi	r19, 0x5C	; 92
     d1e:	4f e8       	ldi	r20, 0x8F	; 143
     d20:	5d e3       	ldi	r21, 0x3D	; 61
     d22:	69 a9       	ldd	r22, Y+49	; 0x31
     d24:	7a a9       	ldd	r23, Y+50	; 0x32
     d26:	8b a9       	ldd	r24, Y+51	; 0x33
     d28:	9c a9       	ldd	r25, Y+52	; 0x34
     d2a:	0e 94 2a 0b 	call	0x1654	; 0x1654 <__mulsf3>
     d2e:	9b 01       	movw	r18, r22
     d30:	ac 01       	movw	r20, r24
     d32:	c7 01       	movw	r24, r14
     d34:	b6 01       	movw	r22, r12
     d36:	0e 94 b9 08 	call	0x1172	; 0x1172 <__addsf3>
     d3a:	60 93 72 02 	sts	0x0272, r22	; 0x800272 <compAngleY>
     d3e:	70 93 73 02 	sts	0x0273, r23	; 0x800273 <compAngleY+0x1>
     d42:	80 93 74 02 	sts	0x0274, r24	; 0x800274 <compAngleY+0x2>
     d46:	90 93 75 02 	sts	0x0275, r25	; 0x800275 <compAngleY+0x3>

	// Reset the gyro angle when it has drifted too much
	if (gyroXangle < -180 || gyroXangle > 180)
     d4a:	20 e0       	ldi	r18, 0x00	; 0
     d4c:	30 e0       	ldi	r19, 0x00	; 0
     d4e:	44 e3       	ldi	r20, 0x34	; 52
     d50:	53 ec       	ldi	r21, 0xC3	; 195
     d52:	6d a1       	ldd	r22, Y+37	; 0x25
     d54:	7e a1       	ldd	r23, Y+38	; 0x26
     d56:	8f a1       	ldd	r24, Y+39	; 0x27
     d58:	98 a5       	ldd	r25, Y+40	; 0x28
     d5a:	0e 94 97 09 	call	0x132e	; 0x132e <__cmpsf2>
     d5e:	87 fd       	sbrc	r24, 7
     d60:	0c c0       	rjmp	.+24     	; 0xd7a <_Z10sensorloopi+0x42e>
     d62:	20 e0       	ldi	r18, 0x00	; 0
     d64:	30 e0       	ldi	r19, 0x00	; 0
     d66:	44 e3       	ldi	r20, 0x34	; 52
     d68:	53 e4       	ldi	r21, 0x43	; 67
     d6a:	6d a1       	ldd	r22, Y+37	; 0x25
     d6c:	7e a1       	ldd	r23, Y+38	; 0x26
     d6e:	8f a1       	ldd	r24, Y+39	; 0x27
     d70:	98 a5       	ldd	r25, Y+40	; 0x28
     d72:	0e 94 1d 0b 	call	0x163a	; 0x163a <__gesf2>
     d76:	18 16       	cp	r1, r24
     d78:	84 f4       	brge	.+32     	; 0xd9a <_Z10sensorloopi+0x44e>
	gyroXangle = kalAngleX;
     d7a:	80 91 6e 02 	lds	r24, 0x026E	; 0x80026e <kalAngleX>
     d7e:	90 91 6f 02 	lds	r25, 0x026F	; 0x80026f <kalAngleX+0x1>
     d82:	a0 91 70 02 	lds	r26, 0x0270	; 0x800270 <kalAngleX+0x2>
     d86:	b0 91 71 02 	lds	r27, 0x0271	; 0x800271 <kalAngleX+0x3>
     d8a:	80 93 7e 02 	sts	0x027E, r24	; 0x80027e <gyroXangle>
     d8e:	90 93 7f 02 	sts	0x027F, r25	; 0x80027f <gyroXangle+0x1>
     d92:	a0 93 80 02 	sts	0x0280, r26	; 0x800280 <gyroXangle+0x2>
     d96:	b0 93 81 02 	sts	0x0281, r27	; 0x800281 <gyroXangle+0x3>
	if (gyroYangle < -180 || gyroYangle > 180)
     d9a:	20 e0       	ldi	r18, 0x00	; 0
     d9c:	30 e0       	ldi	r19, 0x00	; 0
     d9e:	44 e3       	ldi	r20, 0x34	; 52
     da0:	53 ec       	ldi	r21, 0xC3	; 195
     da2:	c5 01       	movw	r24, r10
     da4:	b4 01       	movw	r22, r8
     da6:	0e 94 97 09 	call	0x132e	; 0x132e <__cmpsf2>
     daa:	87 fd       	sbrc	r24, 7
     dac:	0a c0       	rjmp	.+20     	; 0xdc2 <_Z10sensorloopi+0x476>
     dae:	20 e0       	ldi	r18, 0x00	; 0
     db0:	30 e0       	ldi	r19, 0x00	; 0
     db2:	44 e3       	ldi	r20, 0x34	; 52
     db4:	53 e4       	ldi	r21, 0x43	; 67
     db6:	c5 01       	movw	r24, r10
     db8:	b4 01       	movw	r22, r8
     dba:	0e 94 1d 0b 	call	0x163a	; 0x163a <__gesf2>
     dbe:	18 16       	cp	r1, r24
     dc0:	64 f4       	brge	.+24     	; 0xdda <_Z10sensorloopi+0x48e>
	gyroYangle = kalAngleY;
     dc2:	8d a9       	ldd	r24, Y+53	; 0x35
     dc4:	9e a9       	ldd	r25, Y+54	; 0x36
     dc6:	af a9       	ldd	r26, Y+55	; 0x37
     dc8:	b8 ad       	ldd	r27, Y+56	; 0x38
     dca:	80 93 7a 02 	sts	0x027A, r24	; 0x80027a <gyroYangle>
     dce:	90 93 7b 02 	sts	0x027B, r25	; 0x80027b <gyroYangle+0x1>
     dd2:	a0 93 7c 02 	sts	0x027C, r26	; 0x80027c <gyroYangle+0x2>
     dd6:	b0 93 7d 02 	sts	0x027D, r27	; 0x80027d <gyroYangle+0x3>



	/* Get a new sensor event */
	sensors_event_t event;
	mag.getEvent(&event);
     dda:	be 01       	movw	r22, r28
     ddc:	6f 5f       	subi	r22, 0xFF	; 255
     dde:	7f 4f       	sbci	r23, 0xFF	; 255
     de0:	80 ef       	ldi	r24, 0xF0	; 240
     de2:	92 e0       	ldi	r25, 0x02	; 2
     de4:	0e 94 f1 12 	call	0x25e2	; 0x25e2 <_ZN24Adafruit_HMC5883_Unified8getEventEP15sensors_event_t>
	

	// Hold the module so that Z is pointing 'up' and you can measure the heading with x&y
	// Calculate heading when the magnetometer is level, then correct for signs of axis.
	float heading = atan2(event.magnetic.y, event.magnetic.x);
     de8:	2d 89       	ldd	r18, Y+21	; 0x15
     dea:	3e 89       	ldd	r19, Y+22	; 0x16
     dec:	4f 89       	ldd	r20, Y+23	; 0x17
     dee:	58 8d       	ldd	r21, Y+24	; 0x18
     df0:	69 8d       	ldd	r22, Y+25	; 0x19
     df2:	7a 8d       	ldd	r23, Y+26	; 0x1a
     df4:	8b 8d       	ldd	r24, Y+27	; 0x1b
     df6:	9c 8d       	ldd	r25, Y+28	; 0x1c
     df8:	0e 94 38 09 	call	0x1270	; 0x1270 <atan2>
	// Once you have your heading, you must then add your 'Declination Angle', which is the 'Error' of the magnetic field in your location.
	// Find yours here: http://www.magnetic-declination.com/
	// Mine is: -13* 2' W, which is ~13 Degrees, or (which we need) 0.22 radians
	// If you cannot find your Declination, comment out these two lines, your compass will be slightly off.
	float declinationAngle = 0.22;
	heading += declinationAngle;
     dfc:	2e ea       	ldi	r18, 0xAE	; 174
     dfe:	37 e4       	ldi	r19, 0x47	; 71
     e00:	41 e6       	ldi	r20, 0x61	; 97
     e02:	5e e3       	ldi	r21, 0x3E	; 62
     e04:	0e 94 b9 08 	call	0x1172	; 0x1172 <__addsf3>
     e08:	6b 01       	movw	r12, r22
     e0a:	7c 01       	movw	r14, r24
	
	// Correct for when signs are reversed.
	if(heading < 0)
     e0c:	20 e0       	ldi	r18, 0x00	; 0
     e0e:	30 e0       	ldi	r19, 0x00	; 0
     e10:	a9 01       	movw	r20, r18
     e12:	0e 94 97 09 	call	0x132e	; 0x132e <__cmpsf2>
     e16:	87 ff       	sbrs	r24, 7
     e18:	0a c0       	rjmp	.+20     	; 0xe2e <_Z10sensorloopi+0x4e2>
	heading += 2*PI;
     e1a:	2b ed       	ldi	r18, 0xDB	; 219
     e1c:	3f e0       	ldi	r19, 0x0F	; 15
     e1e:	49 ec       	ldi	r20, 0xC9	; 201
     e20:	50 e4       	ldi	r21, 0x40	; 64
     e22:	c7 01       	movw	r24, r14
     e24:	b6 01       	movw	r22, r12
     e26:	0e 94 b9 08 	call	0x1172	; 0x1172 <__addsf3>
     e2a:	6b 01       	movw	r12, r22
     e2c:	7c 01       	movw	r14, r24
	
	// Check for wrap due to addition of declination.
	if(heading > 2*PI)
     e2e:	2b ed       	ldi	r18, 0xDB	; 219
     e30:	3f e0       	ldi	r19, 0x0F	; 15
     e32:	49 ec       	ldi	r20, 0xC9	; 201
     e34:	50 e4       	ldi	r21, 0x40	; 64
     e36:	c7 01       	movw	r24, r14
     e38:	b6 01       	movw	r22, r12
     e3a:	0e 94 1d 0b 	call	0x163a	; 0x163a <__gesf2>
     e3e:	18 16       	cp	r1, r24
     e40:	54 f4       	brge	.+20     	; 0xe56 <_Z10sensorloopi+0x50a>
	heading -= 2*PI;
     e42:	2b ed       	ldi	r18, 0xDB	; 219
     e44:	3f e0       	ldi	r19, 0x0F	; 15
     e46:	49 ec       	ldi	r20, 0xC9	; 201
     e48:	50 e4       	ldi	r21, 0x40	; 64
     e4a:	c7 01       	movw	r24, r14
     e4c:	b6 01       	movw	r22, r12
     e4e:	0e 94 b8 08 	call	0x1170	; 0x1170 <__subsf3>
     e52:	6b 01       	movw	r12, r22
     e54:	7c 01       	movw	r14, r24
	
	// Convert radians to degrees for readability.
	headingDegrees = heading * 180/M_PI;
     e56:	20 e0       	ldi	r18, 0x00	; 0
     e58:	30 e0       	ldi	r19, 0x00	; 0
     e5a:	44 e3       	ldi	r20, 0x34	; 52
     e5c:	53 e4       	ldi	r21, 0x43	; 67
     e5e:	c7 01       	movw	r24, r14
     e60:	b6 01       	movw	r22, r12
     e62:	0e 94 2a 0b 	call	0x1654	; 0x1654 <__mulsf3>
     e66:	2b ed       	ldi	r18, 0xDB	; 219
     e68:	3f e0       	ldi	r19, 0x0F	; 15
     e6a:	49 e4       	ldi	r20, 0x49	; 73
     e6c:	50 e4       	ldi	r21, 0x40	; 64
     e6e:	0e 94 9c 09 	call	0x1338	; 0x1338 <__divsf3>
     e72:	60 93 66 02 	sts	0x0266, r22	; 0x800266 <headingDegrees>
     e76:	70 93 67 02 	sts	0x0267, r23	; 0x800267 <headingDegrees+0x1>
     e7a:	80 93 68 02 	sts	0x0268, r24	; 0x800268 <headingDegrees+0x2>
     e7e:	90 93 69 02 	sts	0x0269, r25	; 0x800269 <headingDegrees+0x3>
	
	#endif
	
	/* Print Data */
	
	if (printout)
     e82:	23 28       	or	r2, r3
     e84:	09 f4       	brne	.+2      	; 0xe88 <_Z10sensorloopi+0x53c>
     e86:	e6 c0       	rjmp	.+460    	; 0x1054 <_Z10sensorloopi+0x708>
	{
	Serial.print(accX/16384*9.80665); Serial.print(" ");
     e88:	20 e0       	ldi	r18, 0x00	; 0
     e8a:	30 e0       	ldi	r19, 0x00	; 0
     e8c:	40 e8       	ldi	r20, 0x80	; 128
     e8e:	58 e3       	ldi	r21, 0x38	; 56
     e90:	60 91 96 02 	lds	r22, 0x0296	; 0x800296 <accX>
     e94:	70 91 97 02 	lds	r23, 0x0297	; 0x800297 <accX+0x1>
     e98:	80 91 98 02 	lds	r24, 0x0298	; 0x800298 <accX+0x2>
     e9c:	90 91 99 02 	lds	r25, 0x0299	; 0x800299 <accX+0x3>
     ea0:	0e 94 2a 0b 	call	0x1654	; 0x1654 <__mulsf3>
     ea4:	2a e0       	ldi	r18, 0x0A	; 10
     ea6:	38 ee       	ldi	r19, 0xE8	; 232
     ea8:	4c e1       	ldi	r20, 0x1C	; 28
     eaa:	51 e4       	ldi	r21, 0x41	; 65
     eac:	0e 94 2a 0b 	call	0x1654	; 0x1654 <__mulsf3>
     eb0:	ab 01       	movw	r20, r22
     eb2:	bc 01       	movw	r22, r24
     eb4:	22 e0       	ldi	r18, 0x02	; 2
     eb6:	30 e0       	ldi	r19, 0x00	; 0
     eb8:	88 e0       	ldi	r24, 0x08	; 8
     eba:	93 e0       	ldi	r25, 0x03	; 3
     ebc:	0e 94 9e 0f 	call	0x1f3c	; 0x1f3c <_ZN5Print5printEdi>
     ec0:	68 e7       	ldi	r22, 0x78	; 120
     ec2:	71 e0       	ldi	r23, 0x01	; 1
     ec4:	88 e0       	ldi	r24, 0x08	; 8
     ec6:	93 e0       	ldi	r25, 0x03	; 3
     ec8:	0e 94 0e 0e 	call	0x1c1c	; 0x1c1c <_ZN5Print5printEPKc>
	Serial.print(accY/16384*9.80665); Serial.print(" ");
     ecc:	20 e0       	ldi	r18, 0x00	; 0
     ece:	30 e0       	ldi	r19, 0x00	; 0
     ed0:	40 e8       	ldi	r20, 0x80	; 128
     ed2:	58 e3       	ldi	r21, 0x38	; 56
     ed4:	60 91 92 02 	lds	r22, 0x0292	; 0x800292 <accY>
     ed8:	70 91 93 02 	lds	r23, 0x0293	; 0x800293 <accY+0x1>
     edc:	80 91 94 02 	lds	r24, 0x0294	; 0x800294 <accY+0x2>
     ee0:	90 91 95 02 	lds	r25, 0x0295	; 0x800295 <accY+0x3>
     ee4:	0e 94 2a 0b 	call	0x1654	; 0x1654 <__mulsf3>
     ee8:	2a e0       	ldi	r18, 0x0A	; 10
     eea:	38 ee       	ldi	r19, 0xE8	; 232
     eec:	4c e1       	ldi	r20, 0x1C	; 28
     eee:	51 e4       	ldi	r21, 0x41	; 65
     ef0:	0e 94 2a 0b 	call	0x1654	; 0x1654 <__mulsf3>
     ef4:	ab 01       	movw	r20, r22
     ef6:	bc 01       	movw	r22, r24
     ef8:	22 e0       	ldi	r18, 0x02	; 2
     efa:	30 e0       	ldi	r19, 0x00	; 0
     efc:	88 e0       	ldi	r24, 0x08	; 8
     efe:	93 e0       	ldi	r25, 0x03	; 3
     f00:	0e 94 9e 0f 	call	0x1f3c	; 0x1f3c <_ZN5Print5printEdi>
     f04:	68 e7       	ldi	r22, 0x78	; 120
     f06:	71 e0       	ldi	r23, 0x01	; 1
     f08:	88 e0       	ldi	r24, 0x08	; 8
     f0a:	93 e0       	ldi	r25, 0x03	; 3
     f0c:	0e 94 0e 0e 	call	0x1c1c	; 0x1c1c <_ZN5Print5printEPKc>
	Serial.print(accZ/16384*9.80665); Serial.print(" ");
     f10:	20 e0       	ldi	r18, 0x00	; 0
     f12:	30 e0       	ldi	r19, 0x00	; 0
     f14:	40 e8       	ldi	r20, 0x80	; 128
     f16:	58 e3       	ldi	r21, 0x38	; 56
     f18:	60 91 8e 02 	lds	r22, 0x028E	; 0x80028e <accZ>
     f1c:	70 91 8f 02 	lds	r23, 0x028F	; 0x80028f <accZ+0x1>
     f20:	80 91 90 02 	lds	r24, 0x0290	; 0x800290 <accZ+0x2>
     f24:	90 91 91 02 	lds	r25, 0x0291	; 0x800291 <accZ+0x3>
     f28:	0e 94 2a 0b 	call	0x1654	; 0x1654 <__mulsf3>
     f2c:	2a e0       	ldi	r18, 0x0A	; 10
     f2e:	38 ee       	ldi	r19, 0xE8	; 232
     f30:	4c e1       	ldi	r20, 0x1C	; 28
     f32:	51 e4       	ldi	r21, 0x41	; 65
     f34:	0e 94 2a 0b 	call	0x1654	; 0x1654 <__mulsf3>
     f38:	ab 01       	movw	r20, r22
     f3a:	bc 01       	movw	r22, r24
     f3c:	22 e0       	ldi	r18, 0x02	; 2
     f3e:	30 e0       	ldi	r19, 0x00	; 0
     f40:	88 e0       	ldi	r24, 0x08	; 8
     f42:	93 e0       	ldi	r25, 0x03	; 3
     f44:	0e 94 9e 0f 	call	0x1f3c	; 0x1f3c <_ZN5Print5printEdi>
     f48:	68 e7       	ldi	r22, 0x78	; 120
     f4a:	71 e0       	ldi	r23, 0x01	; 1
     f4c:	88 e0       	ldi	r24, 0x08	; 8
     f4e:	93 e0       	ldi	r25, 0x03	; 3
     f50:	0e 94 0e 0e 	call	0x1c1c	; 0x1c1c <_ZN5Print5printEPKc>

	Serial.print(gyroX); Serial.print(" ");
     f54:	40 91 8a 02 	lds	r20, 0x028A	; 0x80028a <gyroX>
     f58:	50 91 8b 02 	lds	r21, 0x028B	; 0x80028b <gyroX+0x1>
     f5c:	60 91 8c 02 	lds	r22, 0x028C	; 0x80028c <gyroX+0x2>
     f60:	70 91 8d 02 	lds	r23, 0x028D	; 0x80028d <gyroX+0x3>
     f64:	22 e0       	ldi	r18, 0x02	; 2
     f66:	30 e0       	ldi	r19, 0x00	; 0
     f68:	88 e0       	ldi	r24, 0x08	; 8
     f6a:	93 e0       	ldi	r25, 0x03	; 3
     f6c:	0e 94 9e 0f 	call	0x1f3c	; 0x1f3c <_ZN5Print5printEdi>
     f70:	68 e7       	ldi	r22, 0x78	; 120
     f72:	71 e0       	ldi	r23, 0x01	; 1
     f74:	88 e0       	ldi	r24, 0x08	; 8
     f76:	93 e0       	ldi	r25, 0x03	; 3
     f78:	0e 94 0e 0e 	call	0x1c1c	; 0x1c1c <_ZN5Print5printEPKc>
	Serial.print(gyroY); Serial.print(" ");
     f7c:	40 91 86 02 	lds	r20, 0x0286	; 0x800286 <gyroY>
     f80:	50 91 87 02 	lds	r21, 0x0287	; 0x800287 <gyroY+0x1>
     f84:	60 91 88 02 	lds	r22, 0x0288	; 0x800288 <gyroY+0x2>
     f88:	70 91 89 02 	lds	r23, 0x0289	; 0x800289 <gyroY+0x3>
     f8c:	22 e0       	ldi	r18, 0x02	; 2
     f8e:	30 e0       	ldi	r19, 0x00	; 0
     f90:	88 e0       	ldi	r24, 0x08	; 8
     f92:	93 e0       	ldi	r25, 0x03	; 3
     f94:	0e 94 9e 0f 	call	0x1f3c	; 0x1f3c <_ZN5Print5printEdi>
     f98:	68 e7       	ldi	r22, 0x78	; 120
     f9a:	71 e0       	ldi	r23, 0x01	; 1
     f9c:	88 e0       	ldi	r24, 0x08	; 8
     f9e:	93 e0       	ldi	r25, 0x03	; 3
     fa0:	0e 94 0e 0e 	call	0x1c1c	; 0x1c1c <_ZN5Print5printEPKc>
	Serial.print(gyroZ); Serial.print(" ");
     fa4:	40 91 82 02 	lds	r20, 0x0282	; 0x800282 <gyroZ>
     fa8:	50 91 83 02 	lds	r21, 0x0283	; 0x800283 <gyroZ+0x1>
     fac:	60 91 84 02 	lds	r22, 0x0284	; 0x800284 <gyroZ+0x2>
     fb0:	70 91 85 02 	lds	r23, 0x0285	; 0x800285 <gyroZ+0x3>
     fb4:	22 e0       	ldi	r18, 0x02	; 2
     fb6:	30 e0       	ldi	r19, 0x00	; 0
     fb8:	88 e0       	ldi	r24, 0x08	; 8
     fba:	93 e0       	ldi	r25, 0x03	; 3
     fbc:	0e 94 9e 0f 	call	0x1f3c	; 0x1f3c <_ZN5Print5printEdi>
     fc0:	68 e7       	ldi	r22, 0x78	; 120
     fc2:	71 e0       	ldi	r23, 0x01	; 1
     fc4:	88 e0       	ldi	r24, 0x08	; 8
     fc6:	93 e0       	ldi	r25, 0x03	; 3
     fc8:	0e 94 0e 0e 	call	0x1c1c	; 0x1c1c <_ZN5Print5printEPKc>

	Serial.print(event.magnetic.x); Serial.print(" ");
     fcc:	4d 89       	ldd	r20, Y+21	; 0x15
     fce:	5e 89       	ldd	r21, Y+22	; 0x16
     fd0:	6f 89       	ldd	r22, Y+23	; 0x17
     fd2:	78 8d       	ldd	r23, Y+24	; 0x18
     fd4:	22 e0       	ldi	r18, 0x02	; 2
     fd6:	30 e0       	ldi	r19, 0x00	; 0
     fd8:	88 e0       	ldi	r24, 0x08	; 8
     fda:	93 e0       	ldi	r25, 0x03	; 3
     fdc:	0e 94 9e 0f 	call	0x1f3c	; 0x1f3c <_ZN5Print5printEdi>
     fe0:	68 e7       	ldi	r22, 0x78	; 120
     fe2:	71 e0       	ldi	r23, 0x01	; 1
     fe4:	88 e0       	ldi	r24, 0x08	; 8
     fe6:	93 e0       	ldi	r25, 0x03	; 3
     fe8:	0e 94 0e 0e 	call	0x1c1c	; 0x1c1c <_ZN5Print5printEPKc>
	Serial.print(event.magnetic.y); Serial.print(" ");
     fec:	49 8d       	ldd	r20, Y+25	; 0x19
     fee:	5a 8d       	ldd	r21, Y+26	; 0x1a
     ff0:	6b 8d       	ldd	r22, Y+27	; 0x1b
     ff2:	7c 8d       	ldd	r23, Y+28	; 0x1c
     ff4:	22 e0       	ldi	r18, 0x02	; 2
     ff6:	30 e0       	ldi	r19, 0x00	; 0
     ff8:	88 e0       	ldi	r24, 0x08	; 8
     ffa:	93 e0       	ldi	r25, 0x03	; 3
     ffc:	0e 94 9e 0f 	call	0x1f3c	; 0x1f3c <_ZN5Print5printEdi>
    1000:	68 e7       	ldi	r22, 0x78	; 120
    1002:	71 e0       	ldi	r23, 0x01	; 1
    1004:	88 e0       	ldi	r24, 0x08	; 8
    1006:	93 e0       	ldi	r25, 0x03	; 3
    1008:	0e 94 0e 0e 	call	0x1c1c	; 0x1c1c <_ZN5Print5printEPKc>
	Serial.print(headingDegrees); Serial.print(" ");
    100c:	40 91 66 02 	lds	r20, 0x0266	; 0x800266 <headingDegrees>
    1010:	50 91 67 02 	lds	r21, 0x0267	; 0x800267 <headingDegrees+0x1>
    1014:	60 91 68 02 	lds	r22, 0x0268	; 0x800268 <headingDegrees+0x2>
    1018:	70 91 69 02 	lds	r23, 0x0269	; 0x800269 <headingDegrees+0x3>
    101c:	22 e0       	ldi	r18, 0x02	; 2
    101e:	30 e0       	ldi	r19, 0x00	; 0
    1020:	88 e0       	ldi	r24, 0x08	; 8
    1022:	93 e0       	ldi	r25, 0x03	; 3
    1024:	0e 94 9e 0f 	call	0x1f3c	; 0x1f3c <_ZN5Print5printEdi>
    1028:	68 e7       	ldi	r22, 0x78	; 120
    102a:	71 e0       	ldi	r23, 0x01	; 1
    102c:	88 e0       	ldi	r24, 0x08	; 8
    102e:	93 e0       	ldi	r25, 0x03	; 3
    1030:	0e 94 0e 0e 	call	0x1c1c	; 0x1c1c <_ZN5Print5printEPKc>
	
	Serial.print(dt);
    1034:	22 e0       	ldi	r18, 0x02	; 2
    1036:	30 e0       	ldi	r19, 0x00	; 0
    1038:	49 a5       	ldd	r20, Y+41	; 0x29
    103a:	5a a5       	ldd	r21, Y+42	; 0x2a
    103c:	6b a5       	ldd	r22, Y+43	; 0x2b
    103e:	7c a5       	ldd	r23, Y+44	; 0x2c
    1040:	88 e0       	ldi	r24, 0x08	; 8
    1042:	93 e0       	ldi	r25, 0x03	; 3
    1044:	0e 94 9e 0f 	call	0x1f3c	; 0x1f3c <_ZN5Print5printEdi>
	Serial.print(newlinechar);
    1048:	6a e5       	ldi	r22, 0x5A	; 90
    104a:	72 e0       	ldi	r23, 0x02	; 2
    104c:	88 e0       	ldi	r24, 0x08	; 8
    104e:	93 e0       	ldi	r25, 0x03	; 3
    1050:	0e 94 00 0e 	call	0x1c00	; 0x1c00 <_ZN5Print5printERK6String>
	Serial.print(" ");
	Serial.print(headingDegrees);
	Serial.println();
	#endif
	
	delay(d); // slow down output
    1054:	60 91 36 01 	lds	r22, 0x0136	; 0x800136 <d>
    1058:	70 91 37 01 	lds	r23, 0x0137	; 0x800137 <d+0x1>
    105c:	07 2e       	mov	r0, r23
    105e:	00 0c       	add	r0, r0
    1060:	88 0b       	sbc	r24, r24
    1062:	99 0b       	sbc	r25, r25
    1064:	0e 94 21 10 	call	0x2042	; 0x2042 <delay>
}
    1068:	e8 96       	adiw	r28, 0x38	; 56
    106a:	0f b6       	in	r0, 0x3f	; 63
    106c:	f8 94       	cli
    106e:	de bf       	out	0x3e, r29	; 62
    1070:	0f be       	out	0x3f, r0	; 63
    1072:	cd bf       	out	0x3d, r28	; 61
    1074:	df 91       	pop	r29
    1076:	cf 91       	pop	r28
    1078:	1f 91       	pop	r17
    107a:	0f 91       	pop	r16
    107c:	ff 90       	pop	r15
    107e:	ef 90       	pop	r14
    1080:	df 90       	pop	r13
    1082:	cf 90       	pop	r12
    1084:	bf 90       	pop	r11
    1086:	af 90       	pop	r10
    1088:	9f 90       	pop	r9
    108a:	8f 90       	pop	r8
    108c:	7f 90       	pop	r7
    108e:	6f 90       	pop	r6
    1090:	5f 90       	pop	r5
    1092:	4f 90       	pop	r4
    1094:	3f 90       	pop	r3
    1096:	2f 90       	pop	r2
    1098:	08 95       	ret

0000109a <_Z11delaysensori>:

void delaysensor(int t){
    109a:	0f 93       	push	r16
    109c:	1f 93       	push	r17
    109e:	cf 93       	push	r28
    10a0:	df 93       	push	r29
    10a2:	8c 01       	movw	r16, r24
	for (int x = 0; x < t/d; x++)
    10a4:	c0 e0       	ldi	r28, 0x00	; 0
    10a6:	d0 e0       	ldi	r29, 0x00	; 0
    10a8:	60 91 36 01 	lds	r22, 0x0136	; 0x800136 <d>
    10ac:	70 91 37 01 	lds	r23, 0x0137	; 0x800137 <d+0x1>
    10b0:	c8 01       	movw	r24, r16
    10b2:	0e 94 76 18 	call	0x30ec	; 0x30ec <__divmodhi4>
    10b6:	c6 17       	cp	r28, r22
    10b8:	d7 07       	cpc	r29, r23
    10ba:	34 f4       	brge	.+12     	; 0x10c8 <_Z11delaysensori+0x2e>
	{
		sensorloop(1);
    10bc:	81 e0       	ldi	r24, 0x01	; 1
    10be:	90 e0       	ldi	r25, 0x00	; 0
    10c0:	0e 94 a6 04 	call	0x94c	; 0x94c <_Z10sensorloopi>
	
	delay(d); // slow down output
}

void delaysensor(int t){
	for (int x = 0; x < t/d; x++)
    10c4:	21 96       	adiw	r28, 0x01	; 1
    10c6:	f0 cf       	rjmp	.-32     	; 0x10a8 <_Z11delaysensori+0xe>
	{
		sensorloop(1);
	}
}
    10c8:	df 91       	pop	r29
    10ca:	cf 91       	pop	r28
    10cc:	1f 91       	pop	r17
    10ce:	0f 91       	pop	r16
    10d0:	08 95       	ret

000010d2 <_Z17recvWithEndMarkerv>:
	analogWrite(speedPin[wheelnum], int(abs(speedFromPC[wheelnum])));

}


void recvWithEndMarker() {
    10d2:	cf 93       	push	r28
    10d4:	df 93       	push	r29
			}
		}
		else {
			receivedChars[ndx] = '\0'; // terminate the string
			ndx = 0;
			newData = true;
    10d6:	c1 e0       	ldi	r28, 0x01	; 1

		if (rc != endMarker) {
			receivedChars[ndx] = rc;
			ndx++;
			if (ndx >= numChars) {
				ndx = numChars - 1;
    10d8:	df e1       	ldi	r29, 0x1F	; 31
	static byte ndx = 0;
	char endMarker = '\r';
	char rc;
	
	// if (Serial.available() > 0) {
	while (Serial.available() > 0 && newData == false) {
    10da:	88 e0       	ldi	r24, 0x08	; 8
    10dc:	93 e0       	ldi	r25, 0x03	; 3
    10de:	0e 94 f6 0b 	call	0x17ec	; 0x17ec <_ZN14HardwareSerial9availableEv>
    10e2:	18 16       	cp	r1, r24
    10e4:	19 06       	cpc	r1, r25
    10e6:	1c f5       	brge	.+70     	; 0x112e <_Z17recvWithEndMarkerv+0x5c>
    10e8:	80 91 49 02 	lds	r24, 0x0249	; 0x800249 <newData>
    10ec:	81 11       	cpse	r24, r1
    10ee:	1f c0       	rjmp	.+62     	; 0x112e <_Z17recvWithEndMarkerv+0x5c>
		rc = Serial.read();
    10f0:	88 e0       	ldi	r24, 0x08	; 8
    10f2:	93 e0       	ldi	r25, 0x03	; 3
    10f4:	0e 94 10 0c 	call	0x1820	; 0x1820 <_ZN14HardwareSerial4readEv>
    10f8:	e0 91 28 02 	lds	r30, 0x0228	; 0x800228 <_ZZ17recvWithEndMarkervE3ndx>

		if (rc != endMarker) {
    10fc:	8d 30       	cpi	r24, 0x0D	; 13
    10fe:	71 f0       	breq	.+28     	; 0x111c <_Z17recvWithEndMarkerv+0x4a>
			receivedChars[ndx] = rc;
    1100:	ae 2f       	mov	r26, r30
    1102:	b0 e0       	ldi	r27, 0x00	; 0
    1104:	a7 5d       	subi	r26, 0xD7	; 215
    1106:	bd 4f       	sbci	r27, 0xFD	; 253
    1108:	8c 93       	st	X, r24
			ndx++;
    110a:	ef 5f       	subi	r30, 0xFF	; 255
			if (ndx >= numChars) {
    110c:	e0 32       	cpi	r30, 0x20	; 32
    110e:	18 f4       	brcc	.+6      	; 0x1116 <_Z17recvWithEndMarkerv+0x44>
	while (Serial.available() > 0 && newData == false) {
		rc = Serial.read();

		if (rc != endMarker) {
			receivedChars[ndx] = rc;
			ndx++;
    1110:	e0 93 28 02 	sts	0x0228, r30	; 0x800228 <_ZZ17recvWithEndMarkervE3ndx>
    1114:	e2 cf       	rjmp	.-60     	; 0x10da <_Z17recvWithEndMarkerv+0x8>
			if (ndx >= numChars) {
				ndx = numChars - 1;
    1116:	d0 93 28 02 	sts	0x0228, r29	; 0x800228 <_ZZ17recvWithEndMarkervE3ndx>
    111a:	df cf       	rjmp	.-66     	; 0x10da <_Z17recvWithEndMarkerv+0x8>
			}
		}
		else {
			receivedChars[ndx] = '\0'; // terminate the string
    111c:	f0 e0       	ldi	r31, 0x00	; 0
    111e:	e7 5d       	subi	r30, 0xD7	; 215
    1120:	fd 4f       	sbci	r31, 0xFD	; 253
    1122:	10 82       	st	Z, r1
			ndx = 0;
    1124:	10 92 28 02 	sts	0x0228, r1	; 0x800228 <_ZZ17recvWithEndMarkervE3ndx>
			newData = true;
    1128:	c0 93 49 02 	sts	0x0249, r28	; 0x800249 <newData>
    112c:	d6 cf       	rjmp	.-84     	; 0x10da <_Z17recvWithEndMarkerv+0x8>
		}
	}
}
    112e:	df 91       	pop	r29
    1130:	cf 91       	pop	r28
    1132:	08 95       	ret

00001134 <loop>:
		sensorloop(1);
	}
}

void loop() {
	delaysensor(100);
    1134:	84 e6       	ldi	r24, 0x64	; 100
    1136:	90 e0       	ldi	r25, 0x00	; 0
    1138:	0e 94 4d 08 	call	0x109a	; 0x109a <_Z11delaysensori>
	d = 100;
    113c:	84 e6       	ldi	r24, 0x64	; 100
    113e:	90 e0       	ldi	r25, 0x00	; 0
    1140:	90 93 37 01 	sts	0x0137, r25	; 0x800137 <d+0x1>
    1144:	80 93 36 01 	sts	0x0136, r24	; 0x800136 <d>
	recvWithEndMarker();
    1148:	0e 94 69 08 	call	0x10d2	; 0x10d2 <_Z17recvWithEndMarkerv>
	showNewData();
    114c:	0e 94 e7 01 	call	0x3ce	; 0x3ce <_Z11showNewDatav>
	
	for (int x = 0; x < 4; x++)
	{
		wheeldir(x);
    1150:	80 e0       	ldi	r24, 0x00	; 0
    1152:	90 e0       	ldi	r25, 0x00	; 0
    1154:	0e 94 03 01 	call	0x206	; 0x206 <_Z8wheeldiri>
    1158:	81 e0       	ldi	r24, 0x01	; 1
    115a:	90 e0       	ldi	r25, 0x00	; 0
    115c:	0e 94 03 01 	call	0x206	; 0x206 <_Z8wheeldiri>
    1160:	82 e0       	ldi	r24, 0x02	; 2
    1162:	90 e0       	ldi	r25, 0x00	; 0
    1164:	0e 94 03 01 	call	0x206	; 0x206 <_Z8wheeldiri>
    1168:	83 e0       	ldi	r24, 0x03	; 3
    116a:	90 e0       	ldi	r25, 0x00	; 0
    116c:	0c 94 03 01 	jmp	0x206	; 0x206 <_Z8wheeldiri>

00001170 <__subsf3>:
    1170:	50 58       	subi	r21, 0x80	; 128

00001172 <__addsf3>:
    1172:	bb 27       	eor	r27, r27
    1174:	aa 27       	eor	r26, r26
    1176:	0e 94 d0 08 	call	0x11a0	; 0x11a0 <__addsf3x>
    117a:	0c 94 e3 0a 	jmp	0x15c6	; 0x15c6 <__fp_round>
    117e:	0e 94 d5 0a 	call	0x15aa	; 0x15aa <__fp_pscA>
    1182:	38 f0       	brcs	.+14     	; 0x1192 <__addsf3+0x20>
    1184:	0e 94 dc 0a 	call	0x15b8	; 0x15b8 <__fp_pscB>
    1188:	20 f0       	brcs	.+8      	; 0x1192 <__addsf3+0x20>
    118a:	39 f4       	brne	.+14     	; 0x119a <__addsf3+0x28>
    118c:	9f 3f       	cpi	r25, 0xFF	; 255
    118e:	19 f4       	brne	.+6      	; 0x1196 <__addsf3+0x24>
    1190:	26 f4       	brtc	.+8      	; 0x119a <__addsf3+0x28>
    1192:	0c 94 ab 0a 	jmp	0x1556	; 0x1556 <__fp_nan>
    1196:	0e f4       	brtc	.+2      	; 0x119a <__addsf3+0x28>
    1198:	e0 95       	com	r30
    119a:	e7 fb       	bst	r30, 7
    119c:	0c 94 a5 0a 	jmp	0x154a	; 0x154a <__fp_inf>

000011a0 <__addsf3x>:
    11a0:	e9 2f       	mov	r30, r25
    11a2:	0e 94 f4 0a 	call	0x15e8	; 0x15e8 <__fp_split3>
    11a6:	58 f3       	brcs	.-42     	; 0x117e <__addsf3+0xc>
    11a8:	ba 17       	cp	r27, r26
    11aa:	62 07       	cpc	r22, r18
    11ac:	73 07       	cpc	r23, r19
    11ae:	84 07       	cpc	r24, r20
    11b0:	95 07       	cpc	r25, r21
    11b2:	20 f0       	brcs	.+8      	; 0x11bc <__addsf3x+0x1c>
    11b4:	79 f4       	brne	.+30     	; 0x11d4 <__addsf3x+0x34>
    11b6:	a6 f5       	brtc	.+104    	; 0x1220 <__addsf3x+0x80>
    11b8:	0c 94 16 0b 	jmp	0x162c	; 0x162c <__fp_zero>
    11bc:	0e f4       	brtc	.+2      	; 0x11c0 <__addsf3x+0x20>
    11be:	e0 95       	com	r30
    11c0:	0b 2e       	mov	r0, r27
    11c2:	ba 2f       	mov	r27, r26
    11c4:	a0 2d       	mov	r26, r0
    11c6:	0b 01       	movw	r0, r22
    11c8:	b9 01       	movw	r22, r18
    11ca:	90 01       	movw	r18, r0
    11cc:	0c 01       	movw	r0, r24
    11ce:	ca 01       	movw	r24, r20
    11d0:	a0 01       	movw	r20, r0
    11d2:	11 24       	eor	r1, r1
    11d4:	ff 27       	eor	r31, r31
    11d6:	59 1b       	sub	r21, r25
    11d8:	99 f0       	breq	.+38     	; 0x1200 <__addsf3x+0x60>
    11da:	59 3f       	cpi	r21, 0xF9	; 249
    11dc:	50 f4       	brcc	.+20     	; 0x11f2 <__addsf3x+0x52>
    11de:	50 3e       	cpi	r21, 0xE0	; 224
    11e0:	68 f1       	brcs	.+90     	; 0x123c <__addsf3x+0x9c>
    11e2:	1a 16       	cp	r1, r26
    11e4:	f0 40       	sbci	r31, 0x00	; 0
    11e6:	a2 2f       	mov	r26, r18
    11e8:	23 2f       	mov	r18, r19
    11ea:	34 2f       	mov	r19, r20
    11ec:	44 27       	eor	r20, r20
    11ee:	58 5f       	subi	r21, 0xF8	; 248
    11f0:	f3 cf       	rjmp	.-26     	; 0x11d8 <__addsf3x+0x38>
    11f2:	46 95       	lsr	r20
    11f4:	37 95       	ror	r19
    11f6:	27 95       	ror	r18
    11f8:	a7 95       	ror	r26
    11fa:	f0 40       	sbci	r31, 0x00	; 0
    11fc:	53 95       	inc	r21
    11fe:	c9 f7       	brne	.-14     	; 0x11f2 <__addsf3x+0x52>
    1200:	7e f4       	brtc	.+30     	; 0x1220 <__addsf3x+0x80>
    1202:	1f 16       	cp	r1, r31
    1204:	ba 0b       	sbc	r27, r26
    1206:	62 0b       	sbc	r22, r18
    1208:	73 0b       	sbc	r23, r19
    120a:	84 0b       	sbc	r24, r20
    120c:	ba f0       	brmi	.+46     	; 0x123c <__addsf3x+0x9c>
    120e:	91 50       	subi	r25, 0x01	; 1
    1210:	a1 f0       	breq	.+40     	; 0x123a <__addsf3x+0x9a>
    1212:	ff 0f       	add	r31, r31
    1214:	bb 1f       	adc	r27, r27
    1216:	66 1f       	adc	r22, r22
    1218:	77 1f       	adc	r23, r23
    121a:	88 1f       	adc	r24, r24
    121c:	c2 f7       	brpl	.-16     	; 0x120e <__addsf3x+0x6e>
    121e:	0e c0       	rjmp	.+28     	; 0x123c <__addsf3x+0x9c>
    1220:	ba 0f       	add	r27, r26
    1222:	62 1f       	adc	r22, r18
    1224:	73 1f       	adc	r23, r19
    1226:	84 1f       	adc	r24, r20
    1228:	48 f4       	brcc	.+18     	; 0x123c <__addsf3x+0x9c>
    122a:	87 95       	ror	r24
    122c:	77 95       	ror	r23
    122e:	67 95       	ror	r22
    1230:	b7 95       	ror	r27
    1232:	f7 95       	ror	r31
    1234:	9e 3f       	cpi	r25, 0xFE	; 254
    1236:	08 f0       	brcs	.+2      	; 0x123a <__addsf3x+0x9a>
    1238:	b0 cf       	rjmp	.-160    	; 0x119a <__addsf3+0x28>
    123a:	93 95       	inc	r25
    123c:	88 0f       	add	r24, r24
    123e:	08 f0       	brcs	.+2      	; 0x1242 <__addsf3x+0xa2>
    1240:	99 27       	eor	r25, r25
    1242:	ee 0f       	add	r30, r30
    1244:	97 95       	ror	r25
    1246:	87 95       	ror	r24
    1248:	08 95       	ret
    124a:	0e 94 d5 0a 	call	0x15aa	; 0x15aa <__fp_pscA>
    124e:	60 f0       	brcs	.+24     	; 0x1268 <__addsf3x+0xc8>
    1250:	80 e8       	ldi	r24, 0x80	; 128
    1252:	91 e0       	ldi	r25, 0x01	; 1
    1254:	09 f4       	brne	.+2      	; 0x1258 <__addsf3x+0xb8>
    1256:	9e ef       	ldi	r25, 0xFE	; 254
    1258:	0e 94 dc 0a 	call	0x15b8	; 0x15b8 <__fp_pscB>
    125c:	28 f0       	brcs	.+10     	; 0x1268 <__addsf3x+0xc8>
    125e:	40 e8       	ldi	r20, 0x80	; 128
    1260:	51 e0       	ldi	r21, 0x01	; 1
    1262:	71 f4       	brne	.+28     	; 0x1280 <atan2+0x10>
    1264:	5e ef       	ldi	r21, 0xFE	; 254
    1266:	0c c0       	rjmp	.+24     	; 0x1280 <atan2+0x10>
    1268:	0c 94 ab 0a 	jmp	0x1556	; 0x1556 <__fp_nan>
    126c:	0c 94 16 0b 	jmp	0x162c	; 0x162c <__fp_zero>

00001270 <atan2>:
    1270:	e9 2f       	mov	r30, r25
    1272:	e0 78       	andi	r30, 0x80	; 128
    1274:	0e 94 f4 0a 	call	0x15e8	; 0x15e8 <__fp_split3>
    1278:	40 f3       	brcs	.-48     	; 0x124a <__addsf3x+0xaa>
    127a:	09 2e       	mov	r0, r25
    127c:	05 2a       	or	r0, r21
    127e:	b1 f3       	breq	.-20     	; 0x126c <__addsf3x+0xcc>
    1280:	26 17       	cp	r18, r22
    1282:	37 07       	cpc	r19, r23
    1284:	48 07       	cpc	r20, r24
    1286:	59 07       	cpc	r21, r25
    1288:	38 f0       	brcs	.+14     	; 0x1298 <atan2+0x28>
    128a:	0e 2e       	mov	r0, r30
    128c:	07 f8       	bld	r0, 7
    128e:	e0 25       	eor	r30, r0
    1290:	69 f0       	breq	.+26     	; 0x12ac <atan2+0x3c>
    1292:	e0 25       	eor	r30, r0
    1294:	e0 64       	ori	r30, 0x40	; 64
    1296:	0a c0       	rjmp	.+20     	; 0x12ac <atan2+0x3c>
    1298:	ef 63       	ori	r30, 0x3F	; 63
    129a:	07 f8       	bld	r0, 7
    129c:	00 94       	com	r0
    129e:	07 fa       	bst	r0, 7
    12a0:	db 01       	movw	r26, r22
    12a2:	b9 01       	movw	r22, r18
    12a4:	9d 01       	movw	r18, r26
    12a6:	dc 01       	movw	r26, r24
    12a8:	ca 01       	movw	r24, r20
    12aa:	ad 01       	movw	r20, r26
    12ac:	ef 93       	push	r30
    12ae:	0e 94 b3 09 	call	0x1366	; 0x1366 <__divsf3_pse>
    12b2:	0e 94 e3 0a 	call	0x15c6	; 0x15c6 <__fp_round>
    12b6:	0e 94 68 09 	call	0x12d0	; 0x12d0 <atan>
    12ba:	5f 91       	pop	r21
    12bc:	55 23       	and	r21, r21
    12be:	39 f0       	breq	.+14     	; 0x12ce <atan2+0x5e>
    12c0:	2b ed       	ldi	r18, 0xDB	; 219
    12c2:	3f e0       	ldi	r19, 0x0F	; 15
    12c4:	49 e4       	ldi	r20, 0x49	; 73
    12c6:	50 fd       	sbrc	r21, 0
    12c8:	49 ec       	ldi	r20, 0xC9	; 201
    12ca:	0c 94 b9 08 	jmp	0x1172	; 0x1172 <__addsf3>
    12ce:	08 95       	ret

000012d0 <atan>:
    12d0:	df 93       	push	r29
    12d2:	dd 27       	eor	r29, r29
    12d4:	b9 2f       	mov	r27, r25
    12d6:	bf 77       	andi	r27, 0x7F	; 127
    12d8:	40 e8       	ldi	r20, 0x80	; 128
    12da:	5f e3       	ldi	r21, 0x3F	; 63
    12dc:	16 16       	cp	r1, r22
    12de:	17 06       	cpc	r1, r23
    12e0:	48 07       	cpc	r20, r24
    12e2:	5b 07       	cpc	r21, r27
    12e4:	18 f4       	brcc	.+6      	; 0x12ec <atan+0x1c>
    12e6:	d9 2f       	mov	r29, r25
    12e8:	0e 94 22 0b 	call	0x1644	; 0x1644 <inverse>
    12ec:	9f 93       	push	r25
    12ee:	8f 93       	push	r24
    12f0:	7f 93       	push	r23
    12f2:	6f 93       	push	r22
    12f4:	0e 94 dd 0b 	call	0x17ba	; 0x17ba <square>
    12f8:	e8 e6       	ldi	r30, 0x68	; 104
    12fa:	f0 e0       	ldi	r31, 0x00	; 0
    12fc:	0e 94 ae 0a 	call	0x155c	; 0x155c <__fp_powser>
    1300:	0e 94 e3 0a 	call	0x15c6	; 0x15c6 <__fp_round>
    1304:	2f 91       	pop	r18
    1306:	3f 91       	pop	r19
    1308:	4f 91       	pop	r20
    130a:	5f 91       	pop	r21
    130c:	0e 94 3d 0b 	call	0x167a	; 0x167a <__mulsf3x>
    1310:	dd 23       	and	r29, r29
    1312:	51 f0       	breq	.+20     	; 0x1328 <atan+0x58>
    1314:	90 58       	subi	r25, 0x80	; 128
    1316:	a2 ea       	ldi	r26, 0xA2	; 162
    1318:	2a ed       	ldi	r18, 0xDA	; 218
    131a:	3f e0       	ldi	r19, 0x0F	; 15
    131c:	49 ec       	ldi	r20, 0xC9	; 201
    131e:	5f e3       	ldi	r21, 0x3F	; 63
    1320:	d0 78       	andi	r29, 0x80	; 128
    1322:	5d 27       	eor	r21, r29
    1324:	0e 94 d0 08 	call	0x11a0	; 0x11a0 <__addsf3x>
    1328:	df 91       	pop	r29
    132a:	0c 94 e3 0a 	jmp	0x15c6	; 0x15c6 <__fp_round>

0000132e <__cmpsf2>:
    132e:	0e 94 81 0a 	call	0x1502	; 0x1502 <__fp_cmp>
    1332:	08 f4       	brcc	.+2      	; 0x1336 <__cmpsf2+0x8>
    1334:	81 e0       	ldi	r24, 0x01	; 1
    1336:	08 95       	ret

00001338 <__divsf3>:
    1338:	0e 94 b0 09 	call	0x1360	; 0x1360 <__divsf3x>
    133c:	0c 94 e3 0a 	jmp	0x15c6	; 0x15c6 <__fp_round>
    1340:	0e 94 dc 0a 	call	0x15b8	; 0x15b8 <__fp_pscB>
    1344:	58 f0       	brcs	.+22     	; 0x135c <__divsf3+0x24>
    1346:	0e 94 d5 0a 	call	0x15aa	; 0x15aa <__fp_pscA>
    134a:	40 f0       	brcs	.+16     	; 0x135c <__divsf3+0x24>
    134c:	29 f4       	brne	.+10     	; 0x1358 <__divsf3+0x20>
    134e:	5f 3f       	cpi	r21, 0xFF	; 255
    1350:	29 f0       	breq	.+10     	; 0x135c <__divsf3+0x24>
    1352:	0c 94 a5 0a 	jmp	0x154a	; 0x154a <__fp_inf>
    1356:	51 11       	cpse	r21, r1
    1358:	0c 94 17 0b 	jmp	0x162e	; 0x162e <__fp_szero>
    135c:	0c 94 ab 0a 	jmp	0x1556	; 0x1556 <__fp_nan>

00001360 <__divsf3x>:
    1360:	0e 94 f4 0a 	call	0x15e8	; 0x15e8 <__fp_split3>
    1364:	68 f3       	brcs	.-38     	; 0x1340 <__divsf3+0x8>

00001366 <__divsf3_pse>:
    1366:	99 23       	and	r25, r25
    1368:	b1 f3       	breq	.-20     	; 0x1356 <__divsf3+0x1e>
    136a:	55 23       	and	r21, r21
    136c:	91 f3       	breq	.-28     	; 0x1352 <__divsf3+0x1a>
    136e:	95 1b       	sub	r25, r21
    1370:	55 0b       	sbc	r21, r21
    1372:	bb 27       	eor	r27, r27
    1374:	aa 27       	eor	r26, r26
    1376:	62 17       	cp	r22, r18
    1378:	73 07       	cpc	r23, r19
    137a:	84 07       	cpc	r24, r20
    137c:	38 f0       	brcs	.+14     	; 0x138c <__divsf3_pse+0x26>
    137e:	9f 5f       	subi	r25, 0xFF	; 255
    1380:	5f 4f       	sbci	r21, 0xFF	; 255
    1382:	22 0f       	add	r18, r18
    1384:	33 1f       	adc	r19, r19
    1386:	44 1f       	adc	r20, r20
    1388:	aa 1f       	adc	r26, r26
    138a:	a9 f3       	breq	.-22     	; 0x1376 <__divsf3_pse+0x10>
    138c:	35 d0       	rcall	.+106    	; 0x13f8 <__divsf3_pse+0x92>
    138e:	0e 2e       	mov	r0, r30
    1390:	3a f0       	brmi	.+14     	; 0x13a0 <__divsf3_pse+0x3a>
    1392:	e0 e8       	ldi	r30, 0x80	; 128
    1394:	32 d0       	rcall	.+100    	; 0x13fa <__divsf3_pse+0x94>
    1396:	91 50       	subi	r25, 0x01	; 1
    1398:	50 40       	sbci	r21, 0x00	; 0
    139a:	e6 95       	lsr	r30
    139c:	00 1c       	adc	r0, r0
    139e:	ca f7       	brpl	.-14     	; 0x1392 <__divsf3_pse+0x2c>
    13a0:	2b d0       	rcall	.+86     	; 0x13f8 <__divsf3_pse+0x92>
    13a2:	fe 2f       	mov	r31, r30
    13a4:	29 d0       	rcall	.+82     	; 0x13f8 <__divsf3_pse+0x92>
    13a6:	66 0f       	add	r22, r22
    13a8:	77 1f       	adc	r23, r23
    13aa:	88 1f       	adc	r24, r24
    13ac:	bb 1f       	adc	r27, r27
    13ae:	26 17       	cp	r18, r22
    13b0:	37 07       	cpc	r19, r23
    13b2:	48 07       	cpc	r20, r24
    13b4:	ab 07       	cpc	r26, r27
    13b6:	b0 e8       	ldi	r27, 0x80	; 128
    13b8:	09 f0       	breq	.+2      	; 0x13bc <__divsf3_pse+0x56>
    13ba:	bb 0b       	sbc	r27, r27
    13bc:	80 2d       	mov	r24, r0
    13be:	bf 01       	movw	r22, r30
    13c0:	ff 27       	eor	r31, r31
    13c2:	93 58       	subi	r25, 0x83	; 131
    13c4:	5f 4f       	sbci	r21, 0xFF	; 255
    13c6:	3a f0       	brmi	.+14     	; 0x13d6 <__divsf3_pse+0x70>
    13c8:	9e 3f       	cpi	r25, 0xFE	; 254
    13ca:	51 05       	cpc	r21, r1
    13cc:	78 f0       	brcs	.+30     	; 0x13ec <__divsf3_pse+0x86>
    13ce:	0c 94 a5 0a 	jmp	0x154a	; 0x154a <__fp_inf>
    13d2:	0c 94 17 0b 	jmp	0x162e	; 0x162e <__fp_szero>
    13d6:	5f 3f       	cpi	r21, 0xFF	; 255
    13d8:	e4 f3       	brlt	.-8      	; 0x13d2 <__divsf3_pse+0x6c>
    13da:	98 3e       	cpi	r25, 0xE8	; 232
    13dc:	d4 f3       	brlt	.-12     	; 0x13d2 <__divsf3_pse+0x6c>
    13de:	86 95       	lsr	r24
    13e0:	77 95       	ror	r23
    13e2:	67 95       	ror	r22
    13e4:	b7 95       	ror	r27
    13e6:	f7 95       	ror	r31
    13e8:	9f 5f       	subi	r25, 0xFF	; 255
    13ea:	c9 f7       	brne	.-14     	; 0x13de <__divsf3_pse+0x78>
    13ec:	88 0f       	add	r24, r24
    13ee:	91 1d       	adc	r25, r1
    13f0:	96 95       	lsr	r25
    13f2:	87 95       	ror	r24
    13f4:	97 f9       	bld	r25, 7
    13f6:	08 95       	ret
    13f8:	e1 e0       	ldi	r30, 0x01	; 1
    13fa:	66 0f       	add	r22, r22
    13fc:	77 1f       	adc	r23, r23
    13fe:	88 1f       	adc	r24, r24
    1400:	bb 1f       	adc	r27, r27
    1402:	62 17       	cp	r22, r18
    1404:	73 07       	cpc	r23, r19
    1406:	84 07       	cpc	r24, r20
    1408:	ba 07       	cpc	r27, r26
    140a:	20 f0       	brcs	.+8      	; 0x1414 <__divsf3_pse+0xae>
    140c:	62 1b       	sub	r22, r18
    140e:	73 0b       	sbc	r23, r19
    1410:	84 0b       	sbc	r24, r20
    1412:	ba 0b       	sbc	r27, r26
    1414:	ee 1f       	adc	r30, r30
    1416:	88 f7       	brcc	.-30     	; 0x13fa <__divsf3_pse+0x94>
    1418:	e0 95       	com	r30
    141a:	08 95       	ret

0000141c <__fixsfsi>:
    141c:	0e 94 15 0a 	call	0x142a	; 0x142a <__fixunssfsi>
    1420:	68 94       	set
    1422:	b1 11       	cpse	r27, r1
    1424:	0c 94 17 0b 	jmp	0x162e	; 0x162e <__fp_szero>
    1428:	08 95       	ret

0000142a <__fixunssfsi>:
    142a:	0e 94 fc 0a 	call	0x15f8	; 0x15f8 <__fp_splitA>
    142e:	88 f0       	brcs	.+34     	; 0x1452 <__fixunssfsi+0x28>
    1430:	9f 57       	subi	r25, 0x7F	; 127
    1432:	98 f0       	brcs	.+38     	; 0x145a <__fixunssfsi+0x30>
    1434:	b9 2f       	mov	r27, r25
    1436:	99 27       	eor	r25, r25
    1438:	b7 51       	subi	r27, 0x17	; 23
    143a:	b0 f0       	brcs	.+44     	; 0x1468 <__fixunssfsi+0x3e>
    143c:	e1 f0       	breq	.+56     	; 0x1476 <__fixunssfsi+0x4c>
    143e:	66 0f       	add	r22, r22
    1440:	77 1f       	adc	r23, r23
    1442:	88 1f       	adc	r24, r24
    1444:	99 1f       	adc	r25, r25
    1446:	1a f0       	brmi	.+6      	; 0x144e <__fixunssfsi+0x24>
    1448:	ba 95       	dec	r27
    144a:	c9 f7       	brne	.-14     	; 0x143e <__fixunssfsi+0x14>
    144c:	14 c0       	rjmp	.+40     	; 0x1476 <__fixunssfsi+0x4c>
    144e:	b1 30       	cpi	r27, 0x01	; 1
    1450:	91 f0       	breq	.+36     	; 0x1476 <__fixunssfsi+0x4c>
    1452:	0e 94 16 0b 	call	0x162c	; 0x162c <__fp_zero>
    1456:	b1 e0       	ldi	r27, 0x01	; 1
    1458:	08 95       	ret
    145a:	0c 94 16 0b 	jmp	0x162c	; 0x162c <__fp_zero>
    145e:	67 2f       	mov	r22, r23
    1460:	78 2f       	mov	r23, r24
    1462:	88 27       	eor	r24, r24
    1464:	b8 5f       	subi	r27, 0xF8	; 248
    1466:	39 f0       	breq	.+14     	; 0x1476 <__fixunssfsi+0x4c>
    1468:	b9 3f       	cpi	r27, 0xF9	; 249
    146a:	cc f3       	brlt	.-14     	; 0x145e <__fixunssfsi+0x34>
    146c:	86 95       	lsr	r24
    146e:	77 95       	ror	r23
    1470:	67 95       	ror	r22
    1472:	b3 95       	inc	r27
    1474:	d9 f7       	brne	.-10     	; 0x146c <__fixunssfsi+0x42>
    1476:	3e f4       	brtc	.+14     	; 0x1486 <__fixunssfsi+0x5c>
    1478:	90 95       	com	r25
    147a:	80 95       	com	r24
    147c:	70 95       	com	r23
    147e:	61 95       	neg	r22
    1480:	7f 4f       	sbci	r23, 0xFF	; 255
    1482:	8f 4f       	sbci	r24, 0xFF	; 255
    1484:	9f 4f       	sbci	r25, 0xFF	; 255
    1486:	08 95       	ret

00001488 <__floatunsisf>:
    1488:	e8 94       	clt
    148a:	09 c0       	rjmp	.+18     	; 0x149e <__floatsisf+0x12>

0000148c <__floatsisf>:
    148c:	97 fb       	bst	r25, 7
    148e:	3e f4       	brtc	.+14     	; 0x149e <__floatsisf+0x12>
    1490:	90 95       	com	r25
    1492:	80 95       	com	r24
    1494:	70 95       	com	r23
    1496:	61 95       	neg	r22
    1498:	7f 4f       	sbci	r23, 0xFF	; 255
    149a:	8f 4f       	sbci	r24, 0xFF	; 255
    149c:	9f 4f       	sbci	r25, 0xFF	; 255
    149e:	99 23       	and	r25, r25
    14a0:	a9 f0       	breq	.+42     	; 0x14cc <__floatsisf+0x40>
    14a2:	f9 2f       	mov	r31, r25
    14a4:	96 e9       	ldi	r25, 0x96	; 150
    14a6:	bb 27       	eor	r27, r27
    14a8:	93 95       	inc	r25
    14aa:	f6 95       	lsr	r31
    14ac:	87 95       	ror	r24
    14ae:	77 95       	ror	r23
    14b0:	67 95       	ror	r22
    14b2:	b7 95       	ror	r27
    14b4:	f1 11       	cpse	r31, r1
    14b6:	f8 cf       	rjmp	.-16     	; 0x14a8 <__floatsisf+0x1c>
    14b8:	fa f4       	brpl	.+62     	; 0x14f8 <__floatsisf+0x6c>
    14ba:	bb 0f       	add	r27, r27
    14bc:	11 f4       	brne	.+4      	; 0x14c2 <__floatsisf+0x36>
    14be:	60 ff       	sbrs	r22, 0
    14c0:	1b c0       	rjmp	.+54     	; 0x14f8 <__floatsisf+0x6c>
    14c2:	6f 5f       	subi	r22, 0xFF	; 255
    14c4:	7f 4f       	sbci	r23, 0xFF	; 255
    14c6:	8f 4f       	sbci	r24, 0xFF	; 255
    14c8:	9f 4f       	sbci	r25, 0xFF	; 255
    14ca:	16 c0       	rjmp	.+44     	; 0x14f8 <__floatsisf+0x6c>
    14cc:	88 23       	and	r24, r24
    14ce:	11 f0       	breq	.+4      	; 0x14d4 <__floatsisf+0x48>
    14d0:	96 e9       	ldi	r25, 0x96	; 150
    14d2:	11 c0       	rjmp	.+34     	; 0x14f6 <__floatsisf+0x6a>
    14d4:	77 23       	and	r23, r23
    14d6:	21 f0       	breq	.+8      	; 0x14e0 <__floatsisf+0x54>
    14d8:	9e e8       	ldi	r25, 0x8E	; 142
    14da:	87 2f       	mov	r24, r23
    14dc:	76 2f       	mov	r23, r22
    14de:	05 c0       	rjmp	.+10     	; 0x14ea <__floatsisf+0x5e>
    14e0:	66 23       	and	r22, r22
    14e2:	71 f0       	breq	.+28     	; 0x1500 <__floatsisf+0x74>
    14e4:	96 e8       	ldi	r25, 0x86	; 134
    14e6:	86 2f       	mov	r24, r22
    14e8:	70 e0       	ldi	r23, 0x00	; 0
    14ea:	60 e0       	ldi	r22, 0x00	; 0
    14ec:	2a f0       	brmi	.+10     	; 0x14f8 <__floatsisf+0x6c>
    14ee:	9a 95       	dec	r25
    14f0:	66 0f       	add	r22, r22
    14f2:	77 1f       	adc	r23, r23
    14f4:	88 1f       	adc	r24, r24
    14f6:	da f7       	brpl	.-10     	; 0x14ee <__floatsisf+0x62>
    14f8:	88 0f       	add	r24, r24
    14fa:	96 95       	lsr	r25
    14fc:	87 95       	ror	r24
    14fe:	97 f9       	bld	r25, 7
    1500:	08 95       	ret

00001502 <__fp_cmp>:
    1502:	99 0f       	add	r25, r25
    1504:	00 08       	sbc	r0, r0
    1506:	55 0f       	add	r21, r21
    1508:	aa 0b       	sbc	r26, r26
    150a:	e0 e8       	ldi	r30, 0x80	; 128
    150c:	fe ef       	ldi	r31, 0xFE	; 254
    150e:	16 16       	cp	r1, r22
    1510:	17 06       	cpc	r1, r23
    1512:	e8 07       	cpc	r30, r24
    1514:	f9 07       	cpc	r31, r25
    1516:	c0 f0       	brcs	.+48     	; 0x1548 <__fp_cmp+0x46>
    1518:	12 16       	cp	r1, r18
    151a:	13 06       	cpc	r1, r19
    151c:	e4 07       	cpc	r30, r20
    151e:	f5 07       	cpc	r31, r21
    1520:	98 f0       	brcs	.+38     	; 0x1548 <__fp_cmp+0x46>
    1522:	62 1b       	sub	r22, r18
    1524:	73 0b       	sbc	r23, r19
    1526:	84 0b       	sbc	r24, r20
    1528:	95 0b       	sbc	r25, r21
    152a:	39 f4       	brne	.+14     	; 0x153a <__fp_cmp+0x38>
    152c:	0a 26       	eor	r0, r26
    152e:	61 f0       	breq	.+24     	; 0x1548 <__fp_cmp+0x46>
    1530:	23 2b       	or	r18, r19
    1532:	24 2b       	or	r18, r20
    1534:	25 2b       	or	r18, r21
    1536:	21 f4       	brne	.+8      	; 0x1540 <__fp_cmp+0x3e>
    1538:	08 95       	ret
    153a:	0a 26       	eor	r0, r26
    153c:	09 f4       	brne	.+2      	; 0x1540 <__fp_cmp+0x3e>
    153e:	a1 40       	sbci	r26, 0x01	; 1
    1540:	a6 95       	lsr	r26
    1542:	8f ef       	ldi	r24, 0xFF	; 255
    1544:	81 1d       	adc	r24, r1
    1546:	81 1d       	adc	r24, r1
    1548:	08 95       	ret

0000154a <__fp_inf>:
    154a:	97 f9       	bld	r25, 7
    154c:	9f 67       	ori	r25, 0x7F	; 127
    154e:	80 e8       	ldi	r24, 0x80	; 128
    1550:	70 e0       	ldi	r23, 0x00	; 0
    1552:	60 e0       	ldi	r22, 0x00	; 0
    1554:	08 95       	ret

00001556 <__fp_nan>:
    1556:	9f ef       	ldi	r25, 0xFF	; 255
    1558:	80 ec       	ldi	r24, 0xC0	; 192
    155a:	08 95       	ret

0000155c <__fp_powser>:
    155c:	df 93       	push	r29
    155e:	cf 93       	push	r28
    1560:	1f 93       	push	r17
    1562:	0f 93       	push	r16
    1564:	ff 92       	push	r15
    1566:	ef 92       	push	r14
    1568:	df 92       	push	r13
    156a:	7b 01       	movw	r14, r22
    156c:	8c 01       	movw	r16, r24
    156e:	68 94       	set
    1570:	06 c0       	rjmp	.+12     	; 0x157e <__fp_powser+0x22>
    1572:	da 2e       	mov	r13, r26
    1574:	ef 01       	movw	r28, r30
    1576:	0e 94 3d 0b 	call	0x167a	; 0x167a <__mulsf3x>
    157a:	fe 01       	movw	r30, r28
    157c:	e8 94       	clt
    157e:	a5 91       	lpm	r26, Z+
    1580:	25 91       	lpm	r18, Z+
    1582:	35 91       	lpm	r19, Z+
    1584:	45 91       	lpm	r20, Z+
    1586:	55 91       	lpm	r21, Z+
    1588:	a6 f3       	brts	.-24     	; 0x1572 <__fp_powser+0x16>
    158a:	ef 01       	movw	r28, r30
    158c:	0e 94 d0 08 	call	0x11a0	; 0x11a0 <__addsf3x>
    1590:	fe 01       	movw	r30, r28
    1592:	97 01       	movw	r18, r14
    1594:	a8 01       	movw	r20, r16
    1596:	da 94       	dec	r13
    1598:	69 f7       	brne	.-38     	; 0x1574 <__fp_powser+0x18>
    159a:	df 90       	pop	r13
    159c:	ef 90       	pop	r14
    159e:	ff 90       	pop	r15
    15a0:	0f 91       	pop	r16
    15a2:	1f 91       	pop	r17
    15a4:	cf 91       	pop	r28
    15a6:	df 91       	pop	r29
    15a8:	08 95       	ret

000015aa <__fp_pscA>:
    15aa:	00 24       	eor	r0, r0
    15ac:	0a 94       	dec	r0
    15ae:	16 16       	cp	r1, r22
    15b0:	17 06       	cpc	r1, r23
    15b2:	18 06       	cpc	r1, r24
    15b4:	09 06       	cpc	r0, r25
    15b6:	08 95       	ret

000015b8 <__fp_pscB>:
    15b8:	00 24       	eor	r0, r0
    15ba:	0a 94       	dec	r0
    15bc:	12 16       	cp	r1, r18
    15be:	13 06       	cpc	r1, r19
    15c0:	14 06       	cpc	r1, r20
    15c2:	05 06       	cpc	r0, r21
    15c4:	08 95       	ret

000015c6 <__fp_round>:
    15c6:	09 2e       	mov	r0, r25
    15c8:	03 94       	inc	r0
    15ca:	00 0c       	add	r0, r0
    15cc:	11 f4       	brne	.+4      	; 0x15d2 <__fp_round+0xc>
    15ce:	88 23       	and	r24, r24
    15d0:	52 f0       	brmi	.+20     	; 0x15e6 <__fp_round+0x20>
    15d2:	bb 0f       	add	r27, r27
    15d4:	40 f4       	brcc	.+16     	; 0x15e6 <__fp_round+0x20>
    15d6:	bf 2b       	or	r27, r31
    15d8:	11 f4       	brne	.+4      	; 0x15de <__fp_round+0x18>
    15da:	60 ff       	sbrs	r22, 0
    15dc:	04 c0       	rjmp	.+8      	; 0x15e6 <__fp_round+0x20>
    15de:	6f 5f       	subi	r22, 0xFF	; 255
    15e0:	7f 4f       	sbci	r23, 0xFF	; 255
    15e2:	8f 4f       	sbci	r24, 0xFF	; 255
    15e4:	9f 4f       	sbci	r25, 0xFF	; 255
    15e6:	08 95       	ret

000015e8 <__fp_split3>:
    15e8:	57 fd       	sbrc	r21, 7
    15ea:	90 58       	subi	r25, 0x80	; 128
    15ec:	44 0f       	add	r20, r20
    15ee:	55 1f       	adc	r21, r21
    15f0:	59 f0       	breq	.+22     	; 0x1608 <__fp_splitA+0x10>
    15f2:	5f 3f       	cpi	r21, 0xFF	; 255
    15f4:	71 f0       	breq	.+28     	; 0x1612 <__fp_splitA+0x1a>
    15f6:	47 95       	ror	r20

000015f8 <__fp_splitA>:
    15f8:	88 0f       	add	r24, r24
    15fa:	97 fb       	bst	r25, 7
    15fc:	99 1f       	adc	r25, r25
    15fe:	61 f0       	breq	.+24     	; 0x1618 <__fp_splitA+0x20>
    1600:	9f 3f       	cpi	r25, 0xFF	; 255
    1602:	79 f0       	breq	.+30     	; 0x1622 <__fp_splitA+0x2a>
    1604:	87 95       	ror	r24
    1606:	08 95       	ret
    1608:	12 16       	cp	r1, r18
    160a:	13 06       	cpc	r1, r19
    160c:	14 06       	cpc	r1, r20
    160e:	55 1f       	adc	r21, r21
    1610:	f2 cf       	rjmp	.-28     	; 0x15f6 <__fp_split3+0xe>
    1612:	46 95       	lsr	r20
    1614:	f1 df       	rcall	.-30     	; 0x15f8 <__fp_splitA>
    1616:	08 c0       	rjmp	.+16     	; 0x1628 <__fp_splitA+0x30>
    1618:	16 16       	cp	r1, r22
    161a:	17 06       	cpc	r1, r23
    161c:	18 06       	cpc	r1, r24
    161e:	99 1f       	adc	r25, r25
    1620:	f1 cf       	rjmp	.-30     	; 0x1604 <__fp_splitA+0xc>
    1622:	86 95       	lsr	r24
    1624:	71 05       	cpc	r23, r1
    1626:	61 05       	cpc	r22, r1
    1628:	08 94       	sec
    162a:	08 95       	ret

0000162c <__fp_zero>:
    162c:	e8 94       	clt

0000162e <__fp_szero>:
    162e:	bb 27       	eor	r27, r27
    1630:	66 27       	eor	r22, r22
    1632:	77 27       	eor	r23, r23
    1634:	cb 01       	movw	r24, r22
    1636:	97 f9       	bld	r25, 7
    1638:	08 95       	ret

0000163a <__gesf2>:
    163a:	0e 94 81 0a 	call	0x1502	; 0x1502 <__fp_cmp>
    163e:	08 f4       	brcc	.+2      	; 0x1642 <__gesf2+0x8>
    1640:	8f ef       	ldi	r24, 0xFF	; 255
    1642:	08 95       	ret

00001644 <inverse>:
    1644:	9b 01       	movw	r18, r22
    1646:	ac 01       	movw	r20, r24
    1648:	60 e0       	ldi	r22, 0x00	; 0
    164a:	70 e0       	ldi	r23, 0x00	; 0
    164c:	80 e8       	ldi	r24, 0x80	; 128
    164e:	9f e3       	ldi	r25, 0x3F	; 63
    1650:	0c 94 9c 09 	jmp	0x1338	; 0x1338 <__divsf3>

00001654 <__mulsf3>:
    1654:	0e 94 3d 0b 	call	0x167a	; 0x167a <__mulsf3x>
    1658:	0c 94 e3 0a 	jmp	0x15c6	; 0x15c6 <__fp_round>
    165c:	0e 94 d5 0a 	call	0x15aa	; 0x15aa <__fp_pscA>
    1660:	38 f0       	brcs	.+14     	; 0x1670 <__mulsf3+0x1c>
    1662:	0e 94 dc 0a 	call	0x15b8	; 0x15b8 <__fp_pscB>
    1666:	20 f0       	brcs	.+8      	; 0x1670 <__mulsf3+0x1c>
    1668:	95 23       	and	r25, r21
    166a:	11 f0       	breq	.+4      	; 0x1670 <__mulsf3+0x1c>
    166c:	0c 94 a5 0a 	jmp	0x154a	; 0x154a <__fp_inf>
    1670:	0c 94 ab 0a 	jmp	0x1556	; 0x1556 <__fp_nan>
    1674:	11 24       	eor	r1, r1
    1676:	0c 94 17 0b 	jmp	0x162e	; 0x162e <__fp_szero>

0000167a <__mulsf3x>:
    167a:	0e 94 f4 0a 	call	0x15e8	; 0x15e8 <__fp_split3>
    167e:	70 f3       	brcs	.-36     	; 0x165c <__mulsf3+0x8>

00001680 <__mulsf3_pse>:
    1680:	95 9f       	mul	r25, r21
    1682:	c1 f3       	breq	.-16     	; 0x1674 <__mulsf3+0x20>
    1684:	95 0f       	add	r25, r21
    1686:	50 e0       	ldi	r21, 0x00	; 0
    1688:	55 1f       	adc	r21, r21
    168a:	62 9f       	mul	r22, r18
    168c:	f0 01       	movw	r30, r0
    168e:	72 9f       	mul	r23, r18
    1690:	bb 27       	eor	r27, r27
    1692:	f0 0d       	add	r31, r0
    1694:	b1 1d       	adc	r27, r1
    1696:	63 9f       	mul	r22, r19
    1698:	aa 27       	eor	r26, r26
    169a:	f0 0d       	add	r31, r0
    169c:	b1 1d       	adc	r27, r1
    169e:	aa 1f       	adc	r26, r26
    16a0:	64 9f       	mul	r22, r20
    16a2:	66 27       	eor	r22, r22
    16a4:	b0 0d       	add	r27, r0
    16a6:	a1 1d       	adc	r26, r1
    16a8:	66 1f       	adc	r22, r22
    16aa:	82 9f       	mul	r24, r18
    16ac:	22 27       	eor	r18, r18
    16ae:	b0 0d       	add	r27, r0
    16b0:	a1 1d       	adc	r26, r1
    16b2:	62 1f       	adc	r22, r18
    16b4:	73 9f       	mul	r23, r19
    16b6:	b0 0d       	add	r27, r0
    16b8:	a1 1d       	adc	r26, r1
    16ba:	62 1f       	adc	r22, r18
    16bc:	83 9f       	mul	r24, r19
    16be:	a0 0d       	add	r26, r0
    16c0:	61 1d       	adc	r22, r1
    16c2:	22 1f       	adc	r18, r18
    16c4:	74 9f       	mul	r23, r20
    16c6:	33 27       	eor	r19, r19
    16c8:	a0 0d       	add	r26, r0
    16ca:	61 1d       	adc	r22, r1
    16cc:	23 1f       	adc	r18, r19
    16ce:	84 9f       	mul	r24, r20
    16d0:	60 0d       	add	r22, r0
    16d2:	21 1d       	adc	r18, r1
    16d4:	82 2f       	mov	r24, r18
    16d6:	76 2f       	mov	r23, r22
    16d8:	6a 2f       	mov	r22, r26
    16da:	11 24       	eor	r1, r1
    16dc:	9f 57       	subi	r25, 0x7F	; 127
    16de:	50 40       	sbci	r21, 0x00	; 0
    16e0:	9a f0       	brmi	.+38     	; 0x1708 <__mulsf3_pse+0x88>
    16e2:	f1 f0       	breq	.+60     	; 0x1720 <__mulsf3_pse+0xa0>
    16e4:	88 23       	and	r24, r24
    16e6:	4a f0       	brmi	.+18     	; 0x16fa <__mulsf3_pse+0x7a>
    16e8:	ee 0f       	add	r30, r30
    16ea:	ff 1f       	adc	r31, r31
    16ec:	bb 1f       	adc	r27, r27
    16ee:	66 1f       	adc	r22, r22
    16f0:	77 1f       	adc	r23, r23
    16f2:	88 1f       	adc	r24, r24
    16f4:	91 50       	subi	r25, 0x01	; 1
    16f6:	50 40       	sbci	r21, 0x00	; 0
    16f8:	a9 f7       	brne	.-22     	; 0x16e4 <__mulsf3_pse+0x64>
    16fa:	9e 3f       	cpi	r25, 0xFE	; 254
    16fc:	51 05       	cpc	r21, r1
    16fe:	80 f0       	brcs	.+32     	; 0x1720 <__mulsf3_pse+0xa0>
    1700:	0c 94 a5 0a 	jmp	0x154a	; 0x154a <__fp_inf>
    1704:	0c 94 17 0b 	jmp	0x162e	; 0x162e <__fp_szero>
    1708:	5f 3f       	cpi	r21, 0xFF	; 255
    170a:	e4 f3       	brlt	.-8      	; 0x1704 <__mulsf3_pse+0x84>
    170c:	98 3e       	cpi	r25, 0xE8	; 232
    170e:	d4 f3       	brlt	.-12     	; 0x1704 <__mulsf3_pse+0x84>
    1710:	86 95       	lsr	r24
    1712:	77 95       	ror	r23
    1714:	67 95       	ror	r22
    1716:	b7 95       	ror	r27
    1718:	f7 95       	ror	r31
    171a:	e7 95       	ror	r30
    171c:	9f 5f       	subi	r25, 0xFF	; 255
    171e:	c1 f7       	brne	.-16     	; 0x1710 <__mulsf3_pse+0x90>
    1720:	fe 2b       	or	r31, r30
    1722:	88 0f       	add	r24, r24
    1724:	91 1d       	adc	r25, r1
    1726:	96 95       	lsr	r25
    1728:	87 95       	ror	r24
    172a:	97 f9       	bld	r25, 7
    172c:	08 95       	ret
    172e:	19 f4       	brne	.+6      	; 0x1736 <__mulsf3_pse+0xb6>
    1730:	16 f4       	brtc	.+4      	; 0x1736 <__mulsf3_pse+0xb6>
    1732:	0c 94 ab 0a 	jmp	0x1556	; 0x1556 <__fp_nan>
    1736:	0c 94 e1 0b 	jmp	0x17c2	; 0x17c2 <__fp_mpack>

0000173a <sqrt>:
    173a:	0e 94 fc 0a 	call	0x15f8	; 0x15f8 <__fp_splitA>
    173e:	b8 f3       	brcs	.-18     	; 0x172e <__mulsf3_pse+0xae>
    1740:	99 23       	and	r25, r25
    1742:	c9 f3       	breq	.-14     	; 0x1736 <__mulsf3_pse+0xb6>
    1744:	b6 f3       	brts	.-20     	; 0x1732 <__mulsf3_pse+0xb2>
    1746:	9f 57       	subi	r25, 0x7F	; 127
    1748:	55 0b       	sbc	r21, r21
    174a:	87 ff       	sbrs	r24, 7
    174c:	0e 94 ef 0b 	call	0x17de	; 0x17de <__fp_norm2>
    1750:	00 24       	eor	r0, r0
    1752:	a0 e6       	ldi	r26, 0x60	; 96
    1754:	40 ea       	ldi	r20, 0xA0	; 160
    1756:	90 01       	movw	r18, r0
    1758:	80 58       	subi	r24, 0x80	; 128
    175a:	56 95       	lsr	r21
    175c:	97 95       	ror	r25
    175e:	28 f4       	brcc	.+10     	; 0x176a <sqrt+0x30>
    1760:	80 5c       	subi	r24, 0xC0	; 192
    1762:	66 0f       	add	r22, r22
    1764:	77 1f       	adc	r23, r23
    1766:	88 1f       	adc	r24, r24
    1768:	20 f0       	brcs	.+8      	; 0x1772 <sqrt+0x38>
    176a:	26 17       	cp	r18, r22
    176c:	37 07       	cpc	r19, r23
    176e:	48 07       	cpc	r20, r24
    1770:	30 f4       	brcc	.+12     	; 0x177e <sqrt+0x44>
    1772:	62 1b       	sub	r22, r18
    1774:	73 0b       	sbc	r23, r19
    1776:	84 0b       	sbc	r24, r20
    1778:	20 29       	or	r18, r0
    177a:	31 29       	or	r19, r1
    177c:	4a 2b       	or	r20, r26
    177e:	a6 95       	lsr	r26
    1780:	17 94       	ror	r1
    1782:	07 94       	ror	r0
    1784:	20 25       	eor	r18, r0
    1786:	31 25       	eor	r19, r1
    1788:	4a 27       	eor	r20, r26
    178a:	58 f7       	brcc	.-42     	; 0x1762 <sqrt+0x28>
    178c:	66 0f       	add	r22, r22
    178e:	77 1f       	adc	r23, r23
    1790:	88 1f       	adc	r24, r24
    1792:	20 f0       	brcs	.+8      	; 0x179c <sqrt+0x62>
    1794:	26 17       	cp	r18, r22
    1796:	37 07       	cpc	r19, r23
    1798:	48 07       	cpc	r20, r24
    179a:	30 f4       	brcc	.+12     	; 0x17a8 <sqrt+0x6e>
    179c:	62 0b       	sbc	r22, r18
    179e:	73 0b       	sbc	r23, r19
    17a0:	84 0b       	sbc	r24, r20
    17a2:	20 0d       	add	r18, r0
    17a4:	31 1d       	adc	r19, r1
    17a6:	41 1d       	adc	r20, r1
    17a8:	a0 95       	com	r26
    17aa:	81 f7       	brne	.-32     	; 0x178c <sqrt+0x52>
    17ac:	b9 01       	movw	r22, r18
    17ae:	84 2f       	mov	r24, r20
    17b0:	91 58       	subi	r25, 0x81	; 129
    17b2:	88 0f       	add	r24, r24
    17b4:	96 95       	lsr	r25
    17b6:	87 95       	ror	r24
    17b8:	08 95       	ret

000017ba <square>:
    17ba:	9b 01       	movw	r18, r22
    17bc:	ac 01       	movw	r20, r24
    17be:	0c 94 2a 0b 	jmp	0x1654	; 0x1654 <__mulsf3>

000017c2 <__fp_mpack>:
    17c2:	9f 3f       	cpi	r25, 0xFF	; 255
    17c4:	31 f0       	breq	.+12     	; 0x17d2 <__fp_mpack_finite+0xc>

000017c6 <__fp_mpack_finite>:
    17c6:	91 50       	subi	r25, 0x01	; 1
    17c8:	20 f4       	brcc	.+8      	; 0x17d2 <__fp_mpack_finite+0xc>
    17ca:	87 95       	ror	r24
    17cc:	77 95       	ror	r23
    17ce:	67 95       	ror	r22
    17d0:	b7 95       	ror	r27
    17d2:	88 0f       	add	r24, r24
    17d4:	91 1d       	adc	r25, r1
    17d6:	96 95       	lsr	r25
    17d8:	87 95       	ror	r24
    17da:	97 f9       	bld	r25, 7
    17dc:	08 95       	ret

000017de <__fp_norm2>:
    17de:	91 50       	subi	r25, 0x01	; 1
    17e0:	50 40       	sbci	r21, 0x00	; 0
    17e2:	66 0f       	add	r22, r22
    17e4:	77 1f       	adc	r23, r23
    17e6:	88 1f       	adc	r24, r24
    17e8:	d2 f7       	brpl	.-12     	; 0x17de <__fp_norm2>
    17ea:	08 95       	ret

000017ec <_ZN14HardwareSerial9availableEv>:
  // clear any received data
  _rx_buffer_head = _rx_buffer_tail;
}

int HardwareSerial::available(void)
{
    17ec:	fc 01       	movw	r30, r24
  return ((unsigned int)(SERIAL_RX_BUFFER_SIZE + _rx_buffer_head - _rx_buffer_tail)) % SERIAL_RX_BUFFER_SIZE;
    17ee:	91 8d       	ldd	r25, Z+25	; 0x19
    17f0:	22 8d       	ldd	r18, Z+26	; 0x1a
    17f2:	89 2f       	mov	r24, r25
    17f4:	90 e0       	ldi	r25, 0x00	; 0
    17f6:	80 5c       	subi	r24, 0xC0	; 192
    17f8:	9f 4f       	sbci	r25, 0xFF	; 255
    17fa:	82 1b       	sub	r24, r18
    17fc:	91 09       	sbc	r25, r1
}
    17fe:	8f 73       	andi	r24, 0x3F	; 63
    1800:	99 27       	eor	r25, r25
    1802:	08 95       	ret

00001804 <_ZN14HardwareSerial4peekEv>:

int HardwareSerial::peek(void)
{
    1804:	fc 01       	movw	r30, r24
  if (_rx_buffer_head == _rx_buffer_tail) {
    1806:	91 8d       	ldd	r25, Z+25	; 0x19
    1808:	82 8d       	ldd	r24, Z+26	; 0x1a
    180a:	98 17       	cp	r25, r24
    180c:	31 f0       	breq	.+12     	; 0x181a <_ZN14HardwareSerial4peekEv+0x16>
    return -1;
  } else {
    return _rx_buffer[_rx_buffer_tail];
    180e:	82 8d       	ldd	r24, Z+26	; 0x1a
    1810:	e8 0f       	add	r30, r24
    1812:	f1 1d       	adc	r31, r1
    1814:	85 8d       	ldd	r24, Z+29	; 0x1d
    1816:	90 e0       	ldi	r25, 0x00	; 0
    1818:	08 95       	ret
}

int HardwareSerial::peek(void)
{
  if (_rx_buffer_head == _rx_buffer_tail) {
    return -1;
    181a:	8f ef       	ldi	r24, 0xFF	; 255
    181c:	9f ef       	ldi	r25, 0xFF	; 255
  } else {
    return _rx_buffer[_rx_buffer_tail];
  }
}
    181e:	08 95       	ret

00001820 <_ZN14HardwareSerial4readEv>:

int HardwareSerial::read(void)
{
    1820:	fc 01       	movw	r30, r24
  // if the head isn't ahead of the tail, we don't have any characters
  if (_rx_buffer_head == _rx_buffer_tail) {
    1822:	91 8d       	ldd	r25, Z+25	; 0x19
    1824:	82 8d       	ldd	r24, Z+26	; 0x1a
    1826:	98 17       	cp	r25, r24
    1828:	61 f0       	breq	.+24     	; 0x1842 <_ZN14HardwareSerial4readEv+0x22>
    return -1;
  } else {
    unsigned char c = _rx_buffer[_rx_buffer_tail];
    182a:	82 8d       	ldd	r24, Z+26	; 0x1a
    182c:	df 01       	movw	r26, r30
    182e:	a8 0f       	add	r26, r24
    1830:	b1 1d       	adc	r27, r1
    1832:	5d 96       	adiw	r26, 0x1d	; 29
    1834:	8c 91       	ld	r24, X
    _rx_buffer_tail = (rx_buffer_index_t)(_rx_buffer_tail + 1) % SERIAL_RX_BUFFER_SIZE;
    1836:	92 8d       	ldd	r25, Z+26	; 0x1a
    1838:	9f 5f       	subi	r25, 0xFF	; 255
    183a:	9f 73       	andi	r25, 0x3F	; 63
    183c:	92 8f       	std	Z+26, r25	; 0x1a
    return c;
    183e:	90 e0       	ldi	r25, 0x00	; 0
    1840:	08 95       	ret

int HardwareSerial::read(void)
{
  // if the head isn't ahead of the tail, we don't have any characters
  if (_rx_buffer_head == _rx_buffer_tail) {
    return -1;
    1842:	8f ef       	ldi	r24, 0xFF	; 255
    1844:	9f ef       	ldi	r25, 0xFF	; 255
  } else {
    unsigned char c = _rx_buffer[_rx_buffer_tail];
    _rx_buffer_tail = (rx_buffer_index_t)(_rx_buffer_tail + 1) % SERIAL_RX_BUFFER_SIZE;
    return c;
  }
}
    1846:	08 95       	ret

00001848 <_Z14serialEventRunv>:
#endif

void serialEventRun(void)
{
#if defined(HAVE_HWSERIAL0)
  if (Serial0_available && serialEvent && Serial0_available()) serialEvent();
    1848:	89 e7       	ldi	r24, 0x79	; 121
    184a:	9d e0       	ldi	r25, 0x0D	; 13
    184c:	89 2b       	or	r24, r25
    184e:	49 f0       	breq	.+18     	; 0x1862 <_Z14serialEventRunv+0x1a>
    1850:	80 e0       	ldi	r24, 0x00	; 0
    1852:	90 e0       	ldi	r25, 0x00	; 0
    1854:	89 2b       	or	r24, r25
    1856:	29 f0       	breq	.+10     	; 0x1862 <_Z14serialEventRunv+0x1a>
    1858:	0e 94 79 0d 	call	0x1af2	; 0x1af2 <_Z17Serial0_availablev>
    185c:	81 11       	cpse	r24, r1
    185e:	0c 94 00 00 	jmp	0	; 0x0 <__vectors>
    1862:	08 95       	ret

00001864 <_ZN14HardwareSerial17_tx_udr_empty_irqEv>:
}

// Actual interrupt handlers //////////////////////////////////////////////////////////////

void HardwareSerial::_tx_udr_empty_irq(void)
{
    1864:	fc 01       	movw	r30, r24
  // If interrupts are enabled, there must be more data in the output
  // buffer. Send the next byte
  unsigned char c = _tx_buffer[_tx_buffer_tail];
    1866:	84 8d       	ldd	r24, Z+28	; 0x1c
    1868:	df 01       	movw	r26, r30
    186a:	a8 0f       	add	r26, r24
    186c:	b1 1d       	adc	r27, r1
    186e:	a3 5a       	subi	r26, 0xA3	; 163
    1870:	bf 4f       	sbci	r27, 0xFF	; 255
    1872:	2c 91       	ld	r18, X
  _tx_buffer_tail = (_tx_buffer_tail + 1) % SERIAL_TX_BUFFER_SIZE;
    1874:	84 8d       	ldd	r24, Z+28	; 0x1c
    1876:	90 e0       	ldi	r25, 0x00	; 0
    1878:	01 96       	adiw	r24, 0x01	; 1
    187a:	8f 73       	andi	r24, 0x3F	; 63
    187c:	99 27       	eor	r25, r25
    187e:	84 8f       	std	Z+28, r24	; 0x1c

  *_udr = c;
    1880:	a6 89       	ldd	r26, Z+22	; 0x16
    1882:	b7 89       	ldd	r27, Z+23	; 0x17
    1884:	2c 93       	st	X, r18

  // clear the TXC bit -- "can be cleared by writing a one to its bit
  // location". This makes sure flush() won't return until the bytes
  // actually got written
  sbi(*_ucsra, TXC0);
    1886:	a0 89       	ldd	r26, Z+16	; 0x10
    1888:	b1 89       	ldd	r27, Z+17	; 0x11
    188a:	8c 91       	ld	r24, X
    188c:	80 64       	ori	r24, 0x40	; 64
    188e:	8c 93       	st	X, r24

  if (_tx_buffer_head == _tx_buffer_tail) {
    1890:	93 8d       	ldd	r25, Z+27	; 0x1b
    1892:	84 8d       	ldd	r24, Z+28	; 0x1c
    1894:	98 13       	cpse	r25, r24
    1896:	06 c0       	rjmp	.+12     	; 0x18a4 <_ZN14HardwareSerial17_tx_udr_empty_irqEv+0x40>
    // Buffer empty, so disable interrupts
    cbi(*_ucsrb, UDRIE0);
    1898:	02 88       	ldd	r0, Z+18	; 0x12
    189a:	f3 89       	ldd	r31, Z+19	; 0x13
    189c:	e0 2d       	mov	r30, r0
    189e:	80 81       	ld	r24, Z
    18a0:	8f 7d       	andi	r24, 0xDF	; 223
    18a2:	80 83       	st	Z, r24
    18a4:	08 95       	ret

000018a6 <_ZN14HardwareSerial5flushEv>:
  if (head >= tail) return SERIAL_TX_BUFFER_SIZE - 1 - head + tail;
  return tail - head - 1;
}

void HardwareSerial::flush()
{
    18a6:	cf 93       	push	r28
    18a8:	df 93       	push	r29
    18aa:	ec 01       	movw	r28, r24
  // If we have never written a byte, no need to flush. This special
  // case is needed since there is no way to force the TXC (transmit
  // complete) bit to 1 during initialization
  if (!_written)
    18ac:	88 8d       	ldd	r24, Y+24	; 0x18
    18ae:	88 23       	and	r24, r24
    18b0:	c9 f0       	breq	.+50     	; 0x18e4 <_ZN14HardwareSerial5flushEv+0x3e>
    return;

  while (bit_is_set(*_ucsrb, UDRIE0) || bit_is_clear(*_ucsra, TXC0)) {
    18b2:	ea 89       	ldd	r30, Y+18	; 0x12
    18b4:	fb 89       	ldd	r31, Y+19	; 0x13
    18b6:	80 81       	ld	r24, Z
    18b8:	85 fd       	sbrc	r24, 5
    18ba:	05 c0       	rjmp	.+10     	; 0x18c6 <_ZN14HardwareSerial5flushEv+0x20>
    18bc:	a8 89       	ldd	r26, Y+16	; 0x10
    18be:	b9 89       	ldd	r27, Y+17	; 0x11
    18c0:	8c 91       	ld	r24, X
    18c2:	86 fd       	sbrc	r24, 6
    18c4:	0f c0       	rjmp	.+30     	; 0x18e4 <_ZN14HardwareSerial5flushEv+0x3e>
    if (bit_is_clear(SREG, SREG_I) && bit_is_set(*_ucsrb, UDRIE0))
    18c6:	0f b6       	in	r0, 0x3f	; 63
    18c8:	07 fc       	sbrc	r0, 7
    18ca:	f5 cf       	rjmp	.-22     	; 0x18b6 <_ZN14HardwareSerial5flushEv+0x10>
    18cc:	80 81       	ld	r24, Z
    18ce:	85 ff       	sbrs	r24, 5
    18d0:	f2 cf       	rjmp	.-28     	; 0x18b6 <_ZN14HardwareSerial5flushEv+0x10>
	// Interrupts are globally disabled, but the DR empty
	// interrupt should be enabled, so poll the DR empty flag to
	// prevent deadlock
	if (bit_is_set(*_ucsra, UDRE0))
    18d2:	a8 89       	ldd	r26, Y+16	; 0x10
    18d4:	b9 89       	ldd	r27, Y+17	; 0x11
    18d6:	8c 91       	ld	r24, X
    18d8:	85 ff       	sbrs	r24, 5
    18da:	ed cf       	rjmp	.-38     	; 0x18b6 <_ZN14HardwareSerial5flushEv+0x10>
	  _tx_udr_empty_irq();
    18dc:	ce 01       	movw	r24, r28
    18de:	0e 94 32 0c 	call	0x1864	; 0x1864 <_ZN14HardwareSerial17_tx_udr_empty_irqEv>
    18e2:	e7 cf       	rjmp	.-50     	; 0x18b2 <_ZN14HardwareSerial5flushEv+0xc>
  }
  // If we get here, nothing is queued anymore (DRIE is disabled) and
  // the hardware finished tranmission (TXC is set).
}
    18e4:	df 91       	pop	r29
    18e6:	cf 91       	pop	r28
    18e8:	08 95       	ret

000018ea <_ZN14HardwareSerial5writeEh>:

size_t HardwareSerial::write(uint8_t c)
{
    18ea:	ef 92       	push	r14
    18ec:	ff 92       	push	r15
    18ee:	0f 93       	push	r16
    18f0:	1f 93       	push	r17
    18f2:	cf 93       	push	r28
    18f4:	df 93       	push	r29
    18f6:	ec 01       	movw	r28, r24
  _written = true;
    18f8:	81 e0       	ldi	r24, 0x01	; 1
    18fa:	88 8f       	std	Y+24, r24	; 0x18
  // If the buffer and the data register is empty, just write the byte
  // to the data register and be done. This shortcut helps
  // significantly improve the effective datarate at high (>
  // 500kbit/s) bitrates, where interrupt overhead becomes a slowdown.
  if (_tx_buffer_head == _tx_buffer_tail && bit_is_set(*_ucsra, UDRE0)) {
    18fc:	9b 8d       	ldd	r25, Y+27	; 0x1b
    18fe:	8c 8d       	ldd	r24, Y+28	; 0x1c
    1900:	98 13       	cpse	r25, r24
    1902:	05 c0       	rjmp	.+10     	; 0x190e <_ZN14HardwareSerial5writeEh+0x24>
    1904:	e8 89       	ldd	r30, Y+16	; 0x10
    1906:	f9 89       	ldd	r31, Y+17	; 0x11
    1908:	80 81       	ld	r24, Z
    190a:	85 fd       	sbrc	r24, 5
    190c:	24 c0       	rjmp	.+72     	; 0x1956 <_ZN14HardwareSerial5writeEh+0x6c>
    190e:	f6 2e       	mov	r15, r22
    *_udr = c;
    sbi(*_ucsra, TXC0);
    return 1;
  }
  tx_buffer_index_t i = (_tx_buffer_head + 1) % SERIAL_TX_BUFFER_SIZE;
    1910:	0b 8d       	ldd	r16, Y+27	; 0x1b
    1912:	10 e0       	ldi	r17, 0x00	; 0
    1914:	0f 5f       	subi	r16, 0xFF	; 255
    1916:	1f 4f       	sbci	r17, 0xFF	; 255
    1918:	0f 73       	andi	r16, 0x3F	; 63
    191a:	11 27       	eor	r17, r17
    191c:	e0 2e       	mov	r14, r16
	
  // If the output buffer is full, there's nothing for it other than to 
  // wait for the interrupt handler to empty it a bit
  while (i == _tx_buffer_tail) {
    191e:	8c 8d       	ldd	r24, Y+28	; 0x1c
    1920:	e8 12       	cpse	r14, r24
    1922:	0c c0       	rjmp	.+24     	; 0x193c <_ZN14HardwareSerial5writeEh+0x52>
    if (bit_is_clear(SREG, SREG_I)) {
    1924:	0f b6       	in	r0, 0x3f	; 63
    1926:	07 fc       	sbrc	r0, 7
    1928:	fa cf       	rjmp	.-12     	; 0x191e <_ZN14HardwareSerial5writeEh+0x34>
      // Interrupts are disabled, so we'll have to poll the data
      // register empty flag ourselves. If it is set, pretend an
      // interrupt has happened and call the handler to free up
      // space for us.
      if(bit_is_set(*_ucsra, UDRE0))
    192a:	e8 89       	ldd	r30, Y+16	; 0x10
    192c:	f9 89       	ldd	r31, Y+17	; 0x11
    192e:	80 81       	ld	r24, Z
    1930:	85 ff       	sbrs	r24, 5
    1932:	f5 cf       	rjmp	.-22     	; 0x191e <_ZN14HardwareSerial5writeEh+0x34>
	_tx_udr_empty_irq();
    1934:	ce 01       	movw	r24, r28
    1936:	0e 94 32 0c 	call	0x1864	; 0x1864 <_ZN14HardwareSerial17_tx_udr_empty_irqEv>
    193a:	f1 cf       	rjmp	.-30     	; 0x191e <_ZN14HardwareSerial5writeEh+0x34>
    } else {
      // nop, the interrupt handler will free up space for us
    }
  }

  _tx_buffer[_tx_buffer_head] = c;
    193c:	8b 8d       	ldd	r24, Y+27	; 0x1b
    193e:	fe 01       	movw	r30, r28
    1940:	e8 0f       	add	r30, r24
    1942:	f1 1d       	adc	r31, r1
    1944:	e3 5a       	subi	r30, 0xA3	; 163
    1946:	ff 4f       	sbci	r31, 0xFF	; 255
    1948:	f0 82       	st	Z, r15
  _tx_buffer_head = i;
    194a:	0b 8f       	std	Y+27, r16	; 0x1b
	
  sbi(*_ucsrb, UDRIE0);
    194c:	ea 89       	ldd	r30, Y+18	; 0x12
    194e:	fb 89       	ldd	r31, Y+19	; 0x13
    1950:	80 81       	ld	r24, Z
    1952:	80 62       	ori	r24, 0x20	; 32
    1954:	07 c0       	rjmp	.+14     	; 0x1964 <_ZN14HardwareSerial5writeEh+0x7a>
  // If the buffer and the data register is empty, just write the byte
  // to the data register and be done. This shortcut helps
  // significantly improve the effective datarate at high (>
  // 500kbit/s) bitrates, where interrupt overhead becomes a slowdown.
  if (_tx_buffer_head == _tx_buffer_tail && bit_is_set(*_ucsra, UDRE0)) {
    *_udr = c;
    1956:	ee 89       	ldd	r30, Y+22	; 0x16
    1958:	ff 89       	ldd	r31, Y+23	; 0x17
    195a:	60 83       	st	Z, r22
    sbi(*_ucsra, TXC0);
    195c:	e8 89       	ldd	r30, Y+16	; 0x10
    195e:	f9 89       	ldd	r31, Y+17	; 0x11
    1960:	80 81       	ld	r24, Z
    1962:	80 64       	ori	r24, 0x40	; 64
    1964:	80 83       	st	Z, r24
  _tx_buffer_head = i;
	
  sbi(*_ucsrb, UDRIE0);
  
  return 1;
}
    1966:	81 e0       	ldi	r24, 0x01	; 1
    1968:	90 e0       	ldi	r25, 0x00	; 0
    196a:	df 91       	pop	r29
    196c:	cf 91       	pop	r28
    196e:	1f 91       	pop	r17
    1970:	0f 91       	pop	r16
    1972:	ff 90       	pop	r15
    1974:	ef 90       	pop	r14
    1976:	08 95       	ret

00001978 <_ZN14HardwareSerial5beginEmh>:
}

// Public Methods //////////////////////////////////////////////////////////////

void HardwareSerial::begin(unsigned long baud, byte config)
{
    1978:	cf 92       	push	r12
    197a:	df 92       	push	r13
    197c:	ef 92       	push	r14
    197e:	ff 92       	push	r15
    1980:	1f 93       	push	r17
    1982:	cf 93       	push	r28
    1984:	df 93       	push	r29
    1986:	ec 01       	movw	r28, r24
    1988:	6a 01       	movw	r12, r20
    198a:	7b 01       	movw	r14, r22
    198c:	12 2f       	mov	r17, r18
  // Try u2x mode first
  uint16_t baud_setting = (F_CPU / 4 / baud - 1) / 2;
  *_ucsra = 1 << U2X0;
    198e:	e8 89       	ldd	r30, Y+16	; 0x10
    1990:	f9 89       	ldd	r31, Y+17	; 0x11
    1992:	82 e0       	ldi	r24, 0x02	; 2
    1994:	80 83       	st	Z, r24
  // hardcoded exception for 57600 for compatibility with the bootloader
  // shipped with the Duemilanove and previous boards and the firmware
  // on the 8U2 on the Uno and Mega 2560. Also, The baud_setting cannot
  // be > 4095, so switch back to non-u2x mode if the baud rate is too
  // low.
  if (((F_CPU == 16000000UL) && (baud == 57600)) || (baud_setting >4095))
    1996:	41 15       	cp	r20, r1
    1998:	51 4e       	sbci	r21, 0xE1	; 225
    199a:	61 05       	cpc	r22, r1
    199c:	71 05       	cpc	r23, r1
    199e:	b1 f0       	breq	.+44     	; 0x19cc <_ZN14HardwareSerial5beginEmh+0x54>
// Public Methods //////////////////////////////////////////////////////////////

void HardwareSerial::begin(unsigned long baud, byte config)
{
  // Try u2x mode first
  uint16_t baud_setting = (F_CPU / 4 / baud - 1) / 2;
    19a0:	60 e0       	ldi	r22, 0x00	; 0
    19a2:	79 e0       	ldi	r23, 0x09	; 9
    19a4:	8d e3       	ldi	r24, 0x3D	; 61
    19a6:	90 e0       	ldi	r25, 0x00	; 0
    19a8:	a7 01       	movw	r20, r14
    19aa:	96 01       	movw	r18, r12
    19ac:	0e 94 8a 18 	call	0x3114	; 0x3114 <__udivmodsi4>
    19b0:	da 01       	movw	r26, r20
    19b2:	c9 01       	movw	r24, r18
    19b4:	01 97       	sbiw	r24, 0x01	; 1
    19b6:	a1 09       	sbc	r26, r1
    19b8:	b1 09       	sbc	r27, r1
    19ba:	b6 95       	lsr	r27
    19bc:	a7 95       	ror	r26
    19be:	97 95       	ror	r25
    19c0:	87 95       	ror	r24
    19c2:	ac 01       	movw	r20, r24
  // hardcoded exception for 57600 for compatibility with the bootloader
  // shipped with the Duemilanove and previous boards and the firmware
  // on the 8U2 on the Uno and Mega 2560. Also, The baud_setting cannot
  // be > 4095, so switch back to non-u2x mode if the baud rate is too
  // low.
  if (((F_CPU == 16000000UL) && (baud == 57600)) || (baud_setting >4095))
    19c4:	41 15       	cp	r20, r1
    19c6:	80 e1       	ldi	r24, 0x10	; 16
    19c8:	58 07       	cpc	r21, r24
    19ca:	a8 f0       	brcs	.+42     	; 0x19f6 <_ZN14HardwareSerial5beginEmh+0x7e>
  {
    *_ucsra = 0;
    19cc:	e8 89       	ldd	r30, Y+16	; 0x10
    19ce:	f9 89       	ldd	r31, Y+17	; 0x11
    19d0:	10 82       	st	Z, r1
    baud_setting = (F_CPU / 8 / baud - 1) / 2;
    19d2:	60 e8       	ldi	r22, 0x80	; 128
    19d4:	74 e8       	ldi	r23, 0x84	; 132
    19d6:	8e e1       	ldi	r24, 0x1E	; 30
    19d8:	90 e0       	ldi	r25, 0x00	; 0
    19da:	a7 01       	movw	r20, r14
    19dc:	96 01       	movw	r18, r12
    19de:	0e 94 8a 18 	call	0x3114	; 0x3114 <__udivmodsi4>
    19e2:	ba 01       	movw	r22, r20
    19e4:	a9 01       	movw	r20, r18
    19e6:	41 50       	subi	r20, 0x01	; 1
    19e8:	51 09       	sbc	r21, r1
    19ea:	61 09       	sbc	r22, r1
    19ec:	71 09       	sbc	r23, r1
    19ee:	76 95       	lsr	r23
    19f0:	67 95       	ror	r22
    19f2:	57 95       	ror	r21
    19f4:	47 95       	ror	r20
  }

  // assign the baud_setting, a.k.a. ubrr (USART Baud Rate Register)
  *_ubrrh = baud_setting >> 8;
    19f6:	ec 85       	ldd	r30, Y+12	; 0x0c
    19f8:	fd 85       	ldd	r31, Y+13	; 0x0d
    19fa:	50 83       	st	Z, r21
  *_ubrrl = baud_setting;
    19fc:	ee 85       	ldd	r30, Y+14	; 0x0e
    19fe:	ff 85       	ldd	r31, Y+15	; 0x0f
    1a00:	40 83       	st	Z, r20

  _written = false;
    1a02:	18 8e       	std	Y+24, r1	; 0x18

  //set the data bits, parity, and stop bits
#if defined(__AVR_ATmega8__)
  config |= 0x80; // select UCSRC register (shared with UBRRH)
#endif
  *_ucsrc = config;
    1a04:	ec 89       	ldd	r30, Y+20	; 0x14
    1a06:	fd 89       	ldd	r31, Y+21	; 0x15
    1a08:	10 83       	st	Z, r17
  
  sbi(*_ucsrb, RXEN0);
    1a0a:	ea 89       	ldd	r30, Y+18	; 0x12
    1a0c:	fb 89       	ldd	r31, Y+19	; 0x13
    1a0e:	80 81       	ld	r24, Z
    1a10:	80 61       	ori	r24, 0x10	; 16
    1a12:	80 83       	st	Z, r24
  sbi(*_ucsrb, TXEN0);
    1a14:	ea 89       	ldd	r30, Y+18	; 0x12
    1a16:	fb 89       	ldd	r31, Y+19	; 0x13
    1a18:	80 81       	ld	r24, Z
    1a1a:	88 60       	ori	r24, 0x08	; 8
    1a1c:	80 83       	st	Z, r24
  sbi(*_ucsrb, RXCIE0);
    1a1e:	ea 89       	ldd	r30, Y+18	; 0x12
    1a20:	fb 89       	ldd	r31, Y+19	; 0x13
    1a22:	80 81       	ld	r24, Z
    1a24:	80 68       	ori	r24, 0x80	; 128
    1a26:	80 83       	st	Z, r24
  cbi(*_ucsrb, UDRIE0);
    1a28:	ea 89       	ldd	r30, Y+18	; 0x12
    1a2a:	fb 89       	ldd	r31, Y+19	; 0x13
    1a2c:	80 81       	ld	r24, Z
    1a2e:	8f 7d       	andi	r24, 0xDF	; 223
    1a30:	80 83       	st	Z, r24
}
    1a32:	df 91       	pop	r29
    1a34:	cf 91       	pop	r28
    1a36:	1f 91       	pop	r17
    1a38:	ff 90       	pop	r15
    1a3a:	ef 90       	pop	r14
    1a3c:	df 90       	pop	r13
    1a3e:	cf 90       	pop	r12
    1a40:	08 95       	ret

00001a42 <__vector_18>:
#elif defined(USART_RXC_vect)
  ISR(USART_RXC_vect) // ATmega8
#else
  #error "Don't know what the Data Received vector is called for Serial"
#endif
  {
    1a42:	1f 92       	push	r1
    1a44:	0f 92       	push	r0
    1a46:	0f b6       	in	r0, 0x3f	; 63
    1a48:	0f 92       	push	r0
    1a4a:	11 24       	eor	r1, r1
    1a4c:	2f 93       	push	r18
    1a4e:	8f 93       	push	r24
    1a50:	9f 93       	push	r25
    1a52:	ef 93       	push	r30
    1a54:	ff 93       	push	r31

// Actual interrupt handlers //////////////////////////////////////////////////////////////

void HardwareSerial::_rx_complete_irq(void)
{
  if (bit_is_clear(*_ucsra, UPE0)) {
    1a56:	e0 91 18 03 	lds	r30, 0x0318	; 0x800318 <Serial+0x10>
    1a5a:	f0 91 19 03 	lds	r31, 0x0319	; 0x800319 <Serial+0x11>
    1a5e:	80 81       	ld	r24, Z
    1a60:	e0 91 1e 03 	lds	r30, 0x031E	; 0x80031e <Serial+0x16>
    1a64:	f0 91 1f 03 	lds	r31, 0x031F	; 0x80031f <Serial+0x17>
    1a68:	82 fd       	sbrc	r24, 2
    1a6a:	12 c0       	rjmp	.+36     	; 0x1a90 <__vector_18+0x4e>
    // No Parity error, read byte and store it in the buffer if there is
    // room
    unsigned char c = *_udr;
    1a6c:	90 81       	ld	r25, Z
    rx_buffer_index_t i = (unsigned int)(_rx_buffer_head + 1) % SERIAL_RX_BUFFER_SIZE;
    1a6e:	80 91 21 03 	lds	r24, 0x0321	; 0x800321 <Serial+0x19>
    1a72:	8f 5f       	subi	r24, 0xFF	; 255
    1a74:	8f 73       	andi	r24, 0x3F	; 63

    // if we should be storing the received character into the location
    // just before the tail (meaning that the head would advance to the
    // current location of the tail), we're about to overflow the buffer
    // and so we don't write the character or advance the head.
    if (i != _rx_buffer_tail) {
    1a76:	20 91 22 03 	lds	r18, 0x0322	; 0x800322 <Serial+0x1a>
    1a7a:	82 17       	cp	r24, r18
    1a7c:	51 f0       	breq	.+20     	; 0x1a92 <__vector_18+0x50>
      _rx_buffer[_rx_buffer_head] = c;
    1a7e:	e0 91 21 03 	lds	r30, 0x0321	; 0x800321 <Serial+0x19>
    1a82:	f0 e0       	ldi	r31, 0x00	; 0
    1a84:	e8 5f       	subi	r30, 0xF8	; 248
    1a86:	fc 4f       	sbci	r31, 0xFC	; 252
    1a88:	95 8f       	std	Z+29, r25	; 0x1d
      _rx_buffer_head = i;
    1a8a:	80 93 21 03 	sts	0x0321, r24	; 0x800321 <Serial+0x19>
    1a8e:	01 c0       	rjmp	.+2      	; 0x1a92 <__vector_18+0x50>
    }
  } else {
    // Parity error, read byte but discard it
    *_udr;
    1a90:	80 81       	ld	r24, Z
    Serial._rx_complete_irq();
  }
    1a92:	ff 91       	pop	r31
    1a94:	ef 91       	pop	r30
    1a96:	9f 91       	pop	r25
    1a98:	8f 91       	pop	r24
    1a9a:	2f 91       	pop	r18
    1a9c:	0f 90       	pop	r0
    1a9e:	0f be       	out	0x3f, r0	; 63
    1aa0:	0f 90       	pop	r0
    1aa2:	1f 90       	pop	r1
    1aa4:	18 95       	reti

00001aa6 <__vector_19>:
#elif defined(USART_UDRE_vect)
ISR(USART_UDRE_vect)
#else
  #error "Don't know what the Data Register Empty vector is called for Serial"
#endif
{
    1aa6:	1f 92       	push	r1
    1aa8:	0f 92       	push	r0
    1aaa:	0f b6       	in	r0, 0x3f	; 63
    1aac:	0f 92       	push	r0
    1aae:	11 24       	eor	r1, r1
    1ab0:	2f 93       	push	r18
    1ab2:	3f 93       	push	r19
    1ab4:	4f 93       	push	r20
    1ab6:	5f 93       	push	r21
    1ab8:	6f 93       	push	r22
    1aba:	7f 93       	push	r23
    1abc:	8f 93       	push	r24
    1abe:	9f 93       	push	r25
    1ac0:	af 93       	push	r26
    1ac2:	bf 93       	push	r27
    1ac4:	ef 93       	push	r30
    1ac6:	ff 93       	push	r31
  Serial._tx_udr_empty_irq();
    1ac8:	88 e0       	ldi	r24, 0x08	; 8
    1aca:	93 e0       	ldi	r25, 0x03	; 3
    1acc:	0e 94 32 0c 	call	0x1864	; 0x1864 <_ZN14HardwareSerial17_tx_udr_empty_irqEv>
}
    1ad0:	ff 91       	pop	r31
    1ad2:	ef 91       	pop	r30
    1ad4:	bf 91       	pop	r27
    1ad6:	af 91       	pop	r26
    1ad8:	9f 91       	pop	r25
    1ada:	8f 91       	pop	r24
    1adc:	7f 91       	pop	r23
    1ade:	6f 91       	pop	r22
    1ae0:	5f 91       	pop	r21
    1ae2:	4f 91       	pop	r20
    1ae4:	3f 91       	pop	r19
    1ae6:	2f 91       	pop	r18
    1ae8:	0f 90       	pop	r0
    1aea:	0f be       	out	0x3f, r0	; 63
    1aec:	0f 90       	pop	r0
    1aee:	1f 90       	pop	r1
    1af0:	18 95       	reti

00001af2 <_Z17Serial0_availablev>:
#endif

// Function that can be weakly referenced by serialEventRun to prevent
// pulling in this file if it's not otherwise used.
bool Serial0_available() {
  return Serial.available();
    1af2:	88 e0       	ldi	r24, 0x08	; 8
    1af4:	93 e0       	ldi	r25, 0x03	; 3
    1af6:	0e 94 f6 0b 	call	0x17ec	; 0x17ec <_ZN14HardwareSerial9availableEv>
    1afa:	21 e0       	ldi	r18, 0x01	; 1
    1afc:	89 2b       	or	r24, r25
    1afe:	09 f4       	brne	.+2      	; 0x1b02 <_Z17Serial0_availablev+0x10>
    1b00:	20 e0       	ldi	r18, 0x00	; 0
}
    1b02:	82 2f       	mov	r24, r18
    1b04:	08 95       	ret

00001b06 <_GLOBAL__sub_I___vector_18>:
    size_t printNumber(unsigned long, uint8_t);
    size_t printFloat(double, uint8_t);
  protected:
    void setWriteError(int err = 1) { write_error = err; }
  public:
    Print() : write_error(0) {}
    1b06:	e8 e0       	ldi	r30, 0x08	; 8
    1b08:	f3 e0       	ldi	r31, 0x03	; 3
    1b0a:	13 82       	std	Z+3, r1	; 0x03
    1b0c:	12 82       	std	Z+2, r1	; 0x02
    virtual int available() = 0;
    virtual int read() = 0;
    virtual int peek() = 0;
    virtual void flush() = 0;

    Stream() {_timeout=1000;}
    1b0e:	88 ee       	ldi	r24, 0xE8	; 232
    1b10:	93 e0       	ldi	r25, 0x03	; 3
    1b12:	a0 e0       	ldi	r26, 0x00	; 0
    1b14:	b0 e0       	ldi	r27, 0x00	; 0
    1b16:	84 83       	std	Z+4, r24	; 0x04
    1b18:	95 83       	std	Z+5, r25	; 0x05
    1b1a:	a6 83       	std	Z+6, r26	; 0x06
    1b1c:	b7 83       	std	Z+7, r27	; 0x07
  volatile uint8_t *ucsrc, volatile uint8_t *udr) :
    _ubrrh(ubrrh), _ubrrl(ubrrl),
    _ucsra(ucsra), _ucsrb(ucsrb), _ucsrc(ucsrc),
    _udr(udr),
    _rx_buffer_head(0), _rx_buffer_tail(0),
    _tx_buffer_head(0), _tx_buffer_tail(0)
    1b1e:	83 ee       	ldi	r24, 0xE3	; 227
    1b20:	91 e0       	ldi	r25, 0x01	; 1
    1b22:	91 83       	std	Z+1, r25	; 0x01
    1b24:	80 83       	st	Z, r24
    1b26:	85 ec       	ldi	r24, 0xC5	; 197
    1b28:	90 e0       	ldi	r25, 0x00	; 0
    1b2a:	95 87       	std	Z+13, r25	; 0x0d
    1b2c:	84 87       	std	Z+12, r24	; 0x0c
    1b2e:	84 ec       	ldi	r24, 0xC4	; 196
    1b30:	90 e0       	ldi	r25, 0x00	; 0
    1b32:	97 87       	std	Z+15, r25	; 0x0f
    1b34:	86 87       	std	Z+14, r24	; 0x0e
    1b36:	80 ec       	ldi	r24, 0xC0	; 192
    1b38:	90 e0       	ldi	r25, 0x00	; 0
    1b3a:	91 8b       	std	Z+17, r25	; 0x11
    1b3c:	80 8b       	std	Z+16, r24	; 0x10
    1b3e:	81 ec       	ldi	r24, 0xC1	; 193
    1b40:	90 e0       	ldi	r25, 0x00	; 0
    1b42:	93 8b       	std	Z+19, r25	; 0x13
    1b44:	82 8b       	std	Z+18, r24	; 0x12
    1b46:	82 ec       	ldi	r24, 0xC2	; 194
    1b48:	90 e0       	ldi	r25, 0x00	; 0
    1b4a:	95 8b       	std	Z+21, r25	; 0x15
    1b4c:	84 8b       	std	Z+20, r24	; 0x14
    1b4e:	86 ec       	ldi	r24, 0xC6	; 198
    1b50:	90 e0       	ldi	r25, 0x00	; 0
    1b52:	97 8b       	std	Z+23, r25	; 0x17
    1b54:	86 8b       	std	Z+22, r24	; 0x16
    1b56:	11 8e       	std	Z+25, r1	; 0x19
    1b58:	12 8e       	std	Z+26, r1	; 0x1a
    1b5a:	13 8e       	std	Z+27, r1	; 0x1b
    1b5c:	14 8e       	std	Z+28, r1	; 0x1c
    1b5e:	08 95       	ret

00001b60 <initVariant>:
// May be redefined by variant files.
void initVariant() __attribute__((weak));
void initVariant() { }

void setupUSB() __attribute__((weak));
void setupUSB() { }
    1b60:	08 95       	ret

00001b62 <main>:

int main(void)
{
	init();
    1b62:	0e 94 5d 10 	call	0x20ba	; 0x20ba <init>

	initVariant();
    1b66:	0e 94 b0 0d 	call	0x1b60	; 0x1b60 <initVariant>

#if defined(USBCON)
	USBDevice.attach();
#endif
	
	setup();
    1b6a:	0e 94 6e 03 	call	0x6dc	; 0x6dc <setup>
    
	for (;;) {
		loop();
		if (serialEventRun) serialEventRun();
    1b6e:	c4 e2       	ldi	r28, 0x24	; 36
    1b70:	dc e0       	ldi	r29, 0x0C	; 12
#endif
	
	setup();
    
	for (;;) {
		loop();
    1b72:	0e 94 9a 08 	call	0x1134	; 0x1134 <loop>
		if (serialEventRun) serialEventRun();
    1b76:	20 97       	sbiw	r28, 0x00	; 0
    1b78:	e1 f3       	breq	.-8      	; 0x1b72 <main+0x10>
    1b7a:	0e 94 24 0c 	call	0x1848	; 0x1848 <_Z14serialEventRunv>
    1b7e:	f9 cf       	rjmp	.-14     	; 0x1b72 <main+0x10>

00001b80 <_ZN5Print5writeEPKhj>:
size_t Print::println(unsigned long num, int base)
{
  size_t n = print(num, base);
  n += println();
  return n;
}
    1b80:	cf 92       	push	r12
    1b82:	df 92       	push	r13
    1b84:	ef 92       	push	r14
    1b86:	ff 92       	push	r15
    1b88:	0f 93       	push	r16
    1b8a:	1f 93       	push	r17
    1b8c:	cf 93       	push	r28
    1b8e:	df 93       	push	r29
    1b90:	6c 01       	movw	r12, r24
    1b92:	7a 01       	movw	r14, r20
    1b94:	8b 01       	movw	r16, r22
    1b96:	c0 e0       	ldi	r28, 0x00	; 0
    1b98:	d0 e0       	ldi	r29, 0x00	; 0
    1b9a:	ce 15       	cp	r28, r14
    1b9c:	df 05       	cpc	r29, r15
    1b9e:	89 f0       	breq	.+34     	; 0x1bc2 <_ZN5Print5writeEPKhj+0x42>
    1ba0:	d8 01       	movw	r26, r16
    1ba2:	6d 91       	ld	r22, X+
    1ba4:	8d 01       	movw	r16, r26
    1ba6:	d6 01       	movw	r26, r12
    1ba8:	ed 91       	ld	r30, X+
    1baa:	fc 91       	ld	r31, X
    1bac:	01 90       	ld	r0, Z+
    1bae:	f0 81       	ld	r31, Z
    1bb0:	e0 2d       	mov	r30, r0
    1bb2:	c6 01       	movw	r24, r12
    1bb4:	09 95       	icall
    1bb6:	89 2b       	or	r24, r25
    1bb8:	11 f4       	brne	.+4      	; 0x1bbe <_ZN5Print5writeEPKhj+0x3e>
    1bba:	7e 01       	movw	r14, r28
    1bbc:	02 c0       	rjmp	.+4      	; 0x1bc2 <_ZN5Print5writeEPKhj+0x42>
    1bbe:	21 96       	adiw	r28, 0x01	; 1
    1bc0:	ec cf       	rjmp	.-40     	; 0x1b9a <_ZN5Print5writeEPKhj+0x1a>
    1bc2:	c7 01       	movw	r24, r14
    1bc4:	df 91       	pop	r29
    1bc6:	cf 91       	pop	r28
    1bc8:	1f 91       	pop	r17
    1bca:	0f 91       	pop	r16
    1bcc:	ff 90       	pop	r15
    1bce:	ef 90       	pop	r14
    1bd0:	df 90       	pop	r13
    1bd2:	cf 90       	pop	r12
    1bd4:	08 95       	ret

00001bd6 <_ZN5Print5writeEPKc>:
    1bd6:	61 15       	cp	r22, r1
    1bd8:	71 05       	cpc	r23, r1
    1bda:	79 f0       	breq	.+30     	; 0x1bfa <_ZN5Print5writeEPKc+0x24>
    1bdc:	fb 01       	movw	r30, r22
    1bde:	01 90       	ld	r0, Z+
    1be0:	00 20       	and	r0, r0
    1be2:	e9 f7       	brne	.-6      	; 0x1bde <_ZN5Print5writeEPKc+0x8>
    1be4:	31 97       	sbiw	r30, 0x01	; 1
    1be6:	af 01       	movw	r20, r30
    1be8:	46 1b       	sub	r20, r22
    1bea:	57 0b       	sbc	r21, r23
    1bec:	dc 01       	movw	r26, r24
    1bee:	ed 91       	ld	r30, X+
    1bf0:	fc 91       	ld	r31, X
    1bf2:	02 80       	ldd	r0, Z+2	; 0x02
    1bf4:	f3 81       	ldd	r31, Z+3	; 0x03
    1bf6:	e0 2d       	mov	r30, r0
    1bf8:	09 94       	ijmp
    1bfa:	80 e0       	ldi	r24, 0x00	; 0
    1bfc:	90 e0       	ldi	r25, 0x00	; 0
    1bfe:	08 95       	ret

00001c00 <_ZN5Print5printERK6String>:
    1c00:	dc 01       	movw	r26, r24
    1c02:	ed 91       	ld	r30, X+
    1c04:	fc 91       	ld	r31, X
    1c06:	db 01       	movw	r26, r22
    1c08:	14 96       	adiw	r26, 0x04	; 4
    1c0a:	4d 91       	ld	r20, X+
    1c0c:	5c 91       	ld	r21, X
    1c0e:	15 97       	sbiw	r26, 0x05	; 5
    1c10:	6d 91       	ld	r22, X+
    1c12:	7c 91       	ld	r23, X
    1c14:	02 80       	ldd	r0, Z+2	; 0x02
    1c16:	f3 81       	ldd	r31, Z+3	; 0x03
    1c18:	e0 2d       	mov	r30, r0
    1c1a:	09 94       	ijmp

00001c1c <_ZN5Print5printEPKc>:
    1c1c:	0c 94 eb 0d 	jmp	0x1bd6	; 0x1bd6 <_ZN5Print5writeEPKc>

00001c20 <_ZN5Print5printEc>:
    1c20:	dc 01       	movw	r26, r24
    1c22:	ed 91       	ld	r30, X+
    1c24:	fc 91       	ld	r31, X
    1c26:	01 90       	ld	r0, Z+
    1c28:	f0 81       	ld	r31, Z
    1c2a:	e0 2d       	mov	r30, r0
    1c2c:	09 94       	ijmp

00001c2e <_ZN5Print7printlnEv>:
    1c2e:	6f ee       	ldi	r22, 0xEF	; 239
    1c30:	71 e0       	ldi	r23, 0x01	; 1
    1c32:	0c 94 eb 0d 	jmp	0x1bd6	; 0x1bd6 <_ZN5Print5writeEPKc>

00001c36 <_ZN5Print11printNumberEmh>:
    1c36:	8f 92       	push	r8
    1c38:	9f 92       	push	r9
    1c3a:	af 92       	push	r10
    1c3c:	bf 92       	push	r11
    1c3e:	cf 92       	push	r12
    1c40:	df 92       	push	r13
    1c42:	ef 92       	push	r14
    1c44:	ff 92       	push	r15
    1c46:	0f 93       	push	r16
    1c48:	1f 93       	push	r17
    1c4a:	cf 93       	push	r28
    1c4c:	df 93       	push	r29
    1c4e:	cd b7       	in	r28, 0x3d	; 61
    1c50:	de b7       	in	r29, 0x3e	; 62
    1c52:	a1 97       	sbiw	r28, 0x21	; 33
    1c54:	0f b6       	in	r0, 0x3f	; 63
    1c56:	f8 94       	cli
    1c58:	de bf       	out	0x3e, r29	; 62
    1c5a:	0f be       	out	0x3f, r0	; 63
    1c5c:	cd bf       	out	0x3d, r28	; 61
    1c5e:	7c 01       	movw	r14, r24
    1c60:	d4 2e       	mov	r13, r20
    1c62:	c5 2e       	mov	r12, r21
    1c64:	db 01       	movw	r26, r22
    1c66:	19 a2       	std	Y+33, r1	; 0x21
    1c68:	22 30       	cpi	r18, 0x02	; 2
    1c6a:	08 f4       	brcc	.+2      	; 0x1c6e <_ZN5Print11printNumberEmh+0x38>
    1c6c:	2a e0       	ldi	r18, 0x0A	; 10
    1c6e:	8e 01       	movw	r16, r28
    1c70:	0f 5d       	subi	r16, 0xDF	; 223
    1c72:	1f 4f       	sbci	r17, 0xFF	; 255
    1c74:	82 2e       	mov	r8, r18
    1c76:	91 2c       	mov	r9, r1
    1c78:	a1 2c       	mov	r10, r1
    1c7a:	b1 2c       	mov	r11, r1
    1c7c:	6d 2d       	mov	r22, r13
    1c7e:	7c 2d       	mov	r23, r12
    1c80:	cd 01       	movw	r24, r26
    1c82:	a5 01       	movw	r20, r10
    1c84:	94 01       	movw	r18, r8
    1c86:	0e 94 8a 18 	call	0x3114	; 0x3114 <__udivmodsi4>
    1c8a:	d2 2e       	mov	r13, r18
    1c8c:	c3 2e       	mov	r12, r19
    1c8e:	da 01       	movw	r26, r20
    1c90:	01 50       	subi	r16, 0x01	; 1
    1c92:	11 09       	sbc	r17, r1
    1c94:	6a 30       	cpi	r22, 0x0A	; 10
    1c96:	71 05       	cpc	r23, r1
    1c98:	81 05       	cpc	r24, r1
    1c9a:	91 05       	cpc	r25, r1
    1c9c:	10 f4       	brcc	.+4      	; 0x1ca2 <_ZN5Print11printNumberEmh+0x6c>
    1c9e:	60 5d       	subi	r22, 0xD0	; 208
    1ca0:	01 c0       	rjmp	.+2      	; 0x1ca4 <_ZN5Print11printNumberEmh+0x6e>
    1ca2:	69 5c       	subi	r22, 0xC9	; 201
    1ca4:	f8 01       	movw	r30, r16
    1ca6:	60 83       	st	Z, r22
    1ca8:	23 2b       	or	r18, r19
    1caa:	24 2b       	or	r18, r20
    1cac:	25 2b       	or	r18, r21
    1cae:	31 f7       	brne	.-52     	; 0x1c7c <_ZN5Print11printNumberEmh+0x46>
    1cb0:	b8 01       	movw	r22, r16
    1cb2:	c7 01       	movw	r24, r14
    1cb4:	0e 94 eb 0d 	call	0x1bd6	; 0x1bd6 <_ZN5Print5writeEPKc>
    1cb8:	a1 96       	adiw	r28, 0x21	; 33
    1cba:	0f b6       	in	r0, 0x3f	; 63
    1cbc:	f8 94       	cli
    1cbe:	de bf       	out	0x3e, r29	; 62
    1cc0:	0f be       	out	0x3f, r0	; 63
    1cc2:	cd bf       	out	0x3d, r28	; 61
    1cc4:	df 91       	pop	r29
    1cc6:	cf 91       	pop	r28
    1cc8:	1f 91       	pop	r17
    1cca:	0f 91       	pop	r16
    1ccc:	ff 90       	pop	r15
    1cce:	ef 90       	pop	r14
    1cd0:	df 90       	pop	r13
    1cd2:	cf 90       	pop	r12
    1cd4:	bf 90       	pop	r11
    1cd6:	af 90       	pop	r10
    1cd8:	9f 90       	pop	r9
    1cda:	8f 90       	pop	r8
    1cdc:	08 95       	ret

00001cde <_ZN5Print5printEli>:
    1cde:	cf 92       	push	r12
    1ce0:	df 92       	push	r13
    1ce2:	ef 92       	push	r14
    1ce4:	ff 92       	push	r15
    1ce6:	0f 93       	push	r16
    1ce8:	1f 93       	push	r17
    1cea:	cf 93       	push	r28
    1cec:	df 93       	push	r29
    1cee:	ec 01       	movw	r28, r24
    1cf0:	6a 01       	movw	r12, r20
    1cf2:	7b 01       	movw	r14, r22
    1cf4:	21 15       	cp	r18, r1
    1cf6:	31 05       	cpc	r19, r1
    1cf8:	79 f4       	brne	.+30     	; 0x1d18 <_ZN5Print5printEli+0x3a>
    1cfa:	e8 81       	ld	r30, Y
    1cfc:	f9 81       	ldd	r31, Y+1	; 0x01
    1cfe:	01 90       	ld	r0, Z+
    1d00:	f0 81       	ld	r31, Z
    1d02:	e0 2d       	mov	r30, r0
    1d04:	64 2f       	mov	r22, r20
    1d06:	df 91       	pop	r29
    1d08:	cf 91       	pop	r28
    1d0a:	1f 91       	pop	r17
    1d0c:	0f 91       	pop	r16
    1d0e:	ff 90       	pop	r15
    1d10:	ef 90       	pop	r14
    1d12:	df 90       	pop	r13
    1d14:	cf 90       	pop	r12
    1d16:	09 94       	ijmp
    1d18:	2a 30       	cpi	r18, 0x0A	; 10
    1d1a:	31 05       	cpc	r19, r1
    1d1c:	e9 f4       	brne	.+58     	; 0x1d58 <_ZN5Print5printEli+0x7a>
    1d1e:	77 ff       	sbrs	r23, 7
    1d20:	1a c0       	rjmp	.+52     	; 0x1d56 <_ZN5Print5printEli+0x78>
    1d22:	6d e2       	ldi	r22, 0x2D	; 45
    1d24:	0e 94 10 0e 	call	0x1c20	; 0x1c20 <_ZN5Print5printEc>
    1d28:	8c 01       	movw	r16, r24
    1d2a:	44 27       	eor	r20, r20
    1d2c:	55 27       	eor	r21, r21
    1d2e:	ba 01       	movw	r22, r20
    1d30:	4c 19       	sub	r20, r12
    1d32:	5d 09       	sbc	r21, r13
    1d34:	6e 09       	sbc	r22, r14
    1d36:	7f 09       	sbc	r23, r15
    1d38:	2a e0       	ldi	r18, 0x0A	; 10
    1d3a:	ce 01       	movw	r24, r28
    1d3c:	0e 94 1b 0e 	call	0x1c36	; 0x1c36 <_ZN5Print11printNumberEmh>
    1d40:	80 0f       	add	r24, r16
    1d42:	91 1f       	adc	r25, r17
    1d44:	df 91       	pop	r29
    1d46:	cf 91       	pop	r28
    1d48:	1f 91       	pop	r17
    1d4a:	0f 91       	pop	r16
    1d4c:	ff 90       	pop	r15
    1d4e:	ef 90       	pop	r14
    1d50:	df 90       	pop	r13
    1d52:	cf 90       	pop	r12
    1d54:	08 95       	ret
    1d56:	2a e0       	ldi	r18, 0x0A	; 10
    1d58:	b7 01       	movw	r22, r14
    1d5a:	a6 01       	movw	r20, r12
    1d5c:	ce 01       	movw	r24, r28
    1d5e:	df 91       	pop	r29
    1d60:	cf 91       	pop	r28
    1d62:	1f 91       	pop	r17
    1d64:	0f 91       	pop	r16
    1d66:	ff 90       	pop	r15
    1d68:	ef 90       	pop	r14
    1d6a:	df 90       	pop	r13
    1d6c:	cf 90       	pop	r12
    1d6e:	0c 94 1b 0e 	jmp	0x1c36	; 0x1c36 <_ZN5Print11printNumberEmh>

00001d72 <_ZN5Print10printFloatEdh>:

  return write(str);
}

size_t Print::printFloat(double number, uint8_t digits) 
{ 
    1d72:	4f 92       	push	r4
    1d74:	5f 92       	push	r5
    1d76:	6f 92       	push	r6
    1d78:	7f 92       	push	r7
    1d7a:	8f 92       	push	r8
    1d7c:	9f 92       	push	r9
    1d7e:	af 92       	push	r10
    1d80:	bf 92       	push	r11
    1d82:	cf 92       	push	r12
    1d84:	df 92       	push	r13
    1d86:	ef 92       	push	r14
    1d88:	ff 92       	push	r15
    1d8a:	cf 93       	push	r28
    1d8c:	df 93       	push	r29
    1d8e:	ec 01       	movw	r28, r24
    1d90:	6a 01       	movw	r12, r20
    1d92:	7b 01       	movw	r14, r22
    1d94:	b2 2e       	mov	r11, r18
  size_t n = 0;
  
  if (isnan(number)) return print("nan");
    1d96:	9a 01       	movw	r18, r20
    1d98:	ab 01       	movw	r20, r22
    1d9a:	c7 01       	movw	r24, r14
    1d9c:	b6 01       	movw	r22, r12
    1d9e:	0e 94 71 18 	call	0x30e2	; 0x30e2 <__unordsf2>
    1da2:	88 23       	and	r24, r24
    1da4:	19 f0       	breq	.+6      	; 0x1dac <_ZN5Print10printFloatEdh+0x3a>
  return write(s.c_str(), s.length());
}

size_t Print::print(const char str[])
{
  return write(str);
    1da6:	62 ef       	ldi	r22, 0xF2	; 242
    1da8:	71 e0       	ldi	r23, 0x01	; 1
    1daa:	27 c0       	rjmp	.+78     	; 0x1dfa <_ZN5Print10printFloatEdh+0x88>
size_t Print::printFloat(double number, uint8_t digits) 
{ 
  size_t n = 0;
  
  if (isnan(number)) return print("nan");
  if (isinf(number)) return print("inf");
    1dac:	26 01       	movw	r4, r12
    1dae:	37 01       	movw	r6, r14
    1db0:	e8 94       	clt
    1db2:	77 f8       	bld	r7, 7
    1db4:	2f ef       	ldi	r18, 0xFF	; 255
    1db6:	3f ef       	ldi	r19, 0xFF	; 255
    1db8:	4f e7       	ldi	r20, 0x7F	; 127
    1dba:	5f e7       	ldi	r21, 0x7F	; 127
    1dbc:	c3 01       	movw	r24, r6
    1dbe:	b2 01       	movw	r22, r4
    1dc0:	0e 94 71 18 	call	0x30e2	; 0x30e2 <__unordsf2>
    1dc4:	81 11       	cpse	r24, r1
    1dc6:	0d c0       	rjmp	.+26     	; 0x1de2 <_ZN5Print10printFloatEdh+0x70>
    1dc8:	2f ef       	ldi	r18, 0xFF	; 255
    1dca:	3f ef       	ldi	r19, 0xFF	; 255
    1dcc:	4f e7       	ldi	r20, 0x7F	; 127
    1dce:	5f e7       	ldi	r21, 0x7F	; 127
    1dd0:	c3 01       	movw	r24, r6
    1dd2:	b2 01       	movw	r22, r4
    1dd4:	0e 94 97 09 	call	0x132e	; 0x132e <__cmpsf2>
    1dd8:	18 16       	cp	r1, r24
    1dda:	1c f4       	brge	.+6      	; 0x1de2 <_ZN5Print10printFloatEdh+0x70>
  return write(s.c_str(), s.length());
}

size_t Print::print(const char str[])
{
  return write(str);
    1ddc:	66 ef       	ldi	r22, 0xF6	; 246
    1dde:	71 e0       	ldi	r23, 0x01	; 1
    1de0:	0c c0       	rjmp	.+24     	; 0x1dfa <_ZN5Print10printFloatEdh+0x88>
{ 
  size_t n = 0;
  
  if (isnan(number)) return print("nan");
  if (isinf(number)) return print("inf");
  if (number > 4294967040.0) return print ("ovf");  // constant determined empirically
    1de2:	2f ef       	ldi	r18, 0xFF	; 255
    1de4:	3f ef       	ldi	r19, 0xFF	; 255
    1de6:	4f e7       	ldi	r20, 0x7F	; 127
    1de8:	5f e4       	ldi	r21, 0x4F	; 79
    1dea:	c7 01       	movw	r24, r14
    1dec:	b6 01       	movw	r22, r12
    1dee:	0e 94 1d 0b 	call	0x163a	; 0x163a <__gesf2>
    1df2:	18 16       	cp	r1, r24
    1df4:	9c f4       	brge	.+38     	; 0x1e1c <_ZN5Print10printFloatEdh+0xaa>
  return write(s.c_str(), s.length());
}

size_t Print::print(const char str[])
{
  return write(str);
    1df6:	6a ef       	ldi	r22, 0xFA	; 250
    1df8:	71 e0       	ldi	r23, 0x01	; 1
    1dfa:	ce 01       	movw	r24, r28
    n += print(toPrint);
    remainder -= toPrint; 
  } 
  
  return n;
}
    1dfc:	df 91       	pop	r29
    1dfe:	cf 91       	pop	r28
    1e00:	ff 90       	pop	r15
    1e02:	ef 90       	pop	r14
    1e04:	df 90       	pop	r13
    1e06:	cf 90       	pop	r12
    1e08:	bf 90       	pop	r11
    1e0a:	af 90       	pop	r10
    1e0c:	9f 90       	pop	r9
    1e0e:	8f 90       	pop	r8
    1e10:	7f 90       	pop	r7
    1e12:	6f 90       	pop	r6
    1e14:	5f 90       	pop	r5
    1e16:	4f 90       	pop	r4
  return write(s.c_str(), s.length());
}

size_t Print::print(const char str[])
{
  return write(str);
    1e18:	0c 94 eb 0d 	jmp	0x1bd6	; 0x1bd6 <_ZN5Print5writeEPKc>
  size_t n = 0;
  
  if (isnan(number)) return print("nan");
  if (isinf(number)) return print("inf");
  if (number > 4294967040.0) return print ("ovf");  // constant determined empirically
  if (number <-4294967040.0) return print ("ovf");  // constant determined empirically
    1e1c:	2f ef       	ldi	r18, 0xFF	; 255
    1e1e:	3f ef       	ldi	r19, 0xFF	; 255
    1e20:	4f e7       	ldi	r20, 0x7F	; 127
    1e22:	5f ec       	ldi	r21, 0xCF	; 207
    1e24:	c7 01       	movw	r24, r14
    1e26:	b6 01       	movw	r22, r12
    1e28:	0e 94 97 09 	call	0x132e	; 0x132e <__cmpsf2>
    1e2c:	87 fd       	sbrc	r24, 7
    1e2e:	e3 cf       	rjmp	.-58     	; 0x1df6 <_ZN5Print10printFloatEdh+0x84>
  
  // Handle negative numbers
  if (number < 0.0)
    1e30:	20 e0       	ldi	r18, 0x00	; 0
    1e32:	30 e0       	ldi	r19, 0x00	; 0
    1e34:	a9 01       	movw	r20, r18
    1e36:	c7 01       	movw	r24, r14
    1e38:	b6 01       	movw	r22, r12
    1e3a:	0e 94 97 09 	call	0x132e	; 0x132e <__cmpsf2>
    1e3e:	87 ff       	sbrs	r24, 7
    1e40:	0a c0       	rjmp	.+20     	; 0x1e56 <_ZN5Print10printFloatEdh+0xe4>
  {
     n += print('-');
    1e42:	6d e2       	ldi	r22, 0x2D	; 45
    1e44:	ce 01       	movw	r24, r28
    1e46:	0e 94 10 0e 	call	0x1c20	; 0x1c20 <_ZN5Print5printEc>
    1e4a:	4c 01       	movw	r8, r24
     number = -number;
    1e4c:	f7 fa       	bst	r15, 7
    1e4e:	f0 94       	com	r15
    1e50:	f7 f8       	bld	r15, 7
    1e52:	f0 94       	com	r15
    1e54:	02 c0       	rjmp	.+4      	; 0x1e5a <_ZN5Print10printFloatEdh+0xe8>
  return write(str);
}

size_t Print::printFloat(double number, uint8_t digits) 
{ 
  size_t n = 0;
    1e56:	81 2c       	mov	r8, r1
    1e58:	91 2c       	mov	r9, r1
     number = -number;
  }

  // Round correctly so that print(1.999, 2) prints as "2.00"
  double rounding = 0.5;
  for (uint8_t i=0; i<digits; ++i)
    1e5a:	a1 2c       	mov	r10, r1
     n += print('-');
     number = -number;
  }

  // Round correctly so that print(1.999, 2) prints as "2.00"
  double rounding = 0.5;
    1e5c:	60 e0       	ldi	r22, 0x00	; 0
    1e5e:	70 e0       	ldi	r23, 0x00	; 0
    1e60:	80 e0       	ldi	r24, 0x00	; 0
    1e62:	9f e3       	ldi	r25, 0x3F	; 63
  for (uint8_t i=0; i<digits; ++i)
    1e64:	ab 14       	cp	r10, r11
    1e66:	41 f0       	breq	.+16     	; 0x1e78 <_ZN5Print10printFloatEdh+0x106>
    rounding /= 10.0;
    1e68:	20 e0       	ldi	r18, 0x00	; 0
    1e6a:	30 e0       	ldi	r19, 0x00	; 0
    1e6c:	40 e2       	ldi	r20, 0x20	; 32
    1e6e:	51 e4       	ldi	r21, 0x41	; 65
    1e70:	0e 94 9c 09 	call	0x1338	; 0x1338 <__divsf3>
     number = -number;
  }

  // Round correctly so that print(1.999, 2) prints as "2.00"
  double rounding = 0.5;
  for (uint8_t i=0; i<digits; ++i)
    1e74:	a3 94       	inc	r10
    1e76:	f6 cf       	rjmp	.-20     	; 0x1e64 <_ZN5Print10printFloatEdh+0xf2>
    rounding /= 10.0;
  
  number += rounding;
    1e78:	9b 01       	movw	r18, r22
    1e7a:	ac 01       	movw	r20, r24
    1e7c:	c7 01       	movw	r24, r14
    1e7e:	b6 01       	movw	r22, r12
    1e80:	0e 94 b9 08 	call	0x1172	; 0x1172 <__addsf3>
    1e84:	2b 01       	movw	r4, r22
    1e86:	3c 01       	movw	r6, r24

  // Extract the integer part of the number and print it
  unsigned long int_part = (unsigned long)number;
    1e88:	0e 94 15 0a 	call	0x142a	; 0x142a <__fixunssfsi>
    1e8c:	6b 01       	movw	r12, r22
    1e8e:	7c 01       	movw	r14, r24
  double remainder = number - (double)int_part;
    1e90:	0e 94 44 0a 	call	0x1488	; 0x1488 <__floatunsisf>
    1e94:	9b 01       	movw	r18, r22
    1e96:	ac 01       	movw	r20, r24
    1e98:	c3 01       	movw	r24, r6
    1e9a:	b2 01       	movw	r22, r4
    1e9c:	0e 94 b8 08 	call	0x1170	; 0x1170 <__subsf3>
    1ea0:	2b 01       	movw	r4, r22
    1ea2:	3c 01       	movw	r6, r24
}

size_t Print::print(unsigned long n, int base)
{
  if (base == 0) return write(n);
  else return printNumber(n, base);
    1ea4:	2a e0       	ldi	r18, 0x0A	; 10
    1ea6:	b7 01       	movw	r22, r14
    1ea8:	a6 01       	movw	r20, r12
    1eaa:	ce 01       	movw	r24, r28
    1eac:	0e 94 1b 0e 	call	0x1c36	; 0x1c36 <_ZN5Print11printNumberEmh>
  number += rounding;

  // Extract the integer part of the number and print it
  unsigned long int_part = (unsigned long)number;
  double remainder = number - (double)int_part;
  n += print(int_part);
    1eb0:	7c 01       	movw	r14, r24
    1eb2:	e8 0c       	add	r14, r8
    1eb4:	f9 1c       	adc	r15, r9

  // Print the decimal point, but only if there are digits beyond
  if (digits > 0) {
    1eb6:	bb 20       	and	r11, r11
    1eb8:	39 f0       	breq	.+14     	; 0x1ec8 <_ZN5Print10printFloatEdh+0x156>
  return write(s.c_str(), s.length());
}

size_t Print::print(const char str[])
{
  return write(str);
    1eba:	6e ef       	ldi	r22, 0xFE	; 254
    1ebc:	71 e0       	ldi	r23, 0x01	; 1
    1ebe:	ce 01       	movw	r24, r28
    1ec0:	0e 94 eb 0d 	call	0x1bd6	; 0x1bd6 <_ZN5Print5writeEPKc>
  double remainder = number - (double)int_part;
  n += print(int_part);

  // Print the decimal point, but only if there are digits beyond
  if (digits > 0) {
    n += print("."); 
    1ec4:	e8 0e       	add	r14, r24
    1ec6:	f9 1e       	adc	r15, r25
     n += print('-');
     number = -number;
  }

  // Round correctly so that print(1.999, 2) prints as "2.00"
  double rounding = 0.5;
    1ec8:	db 2c       	mov	r13, r11
  if (digits > 0) {
    n += print("."); 
  }

  // Extract digits from the remainder one at a time
  while (digits-- > 0)
    1eca:	dd 20       	and	r13, r13
    1ecc:	39 f1       	breq	.+78     	; 0x1f1c <_ZN5Print10printFloatEdh+0x1aa>
  {
    remainder *= 10.0;
    1ece:	20 e0       	ldi	r18, 0x00	; 0
    1ed0:	30 e0       	ldi	r19, 0x00	; 0
    1ed2:	40 e2       	ldi	r20, 0x20	; 32
    1ed4:	51 e4       	ldi	r21, 0x41	; 65
    1ed6:	c3 01       	movw	r24, r6
    1ed8:	b2 01       	movw	r22, r4
    1eda:	0e 94 2a 0b 	call	0x1654	; 0x1654 <__mulsf3>
    1ede:	2b 01       	movw	r4, r22
    1ee0:	3c 01       	movw	r6, r24
    int toPrint = int(remainder);
    1ee2:	0e 94 0e 0a 	call	0x141c	; 0x141c <__fixsfsi>
  return print((unsigned long) b, base);
}

size_t Print::print(int n, int base)
{
  return print((long) n, base);
    1ee6:	4b 01       	movw	r8, r22
    1ee8:	77 0f       	add	r23, r23
    1eea:	aa 08       	sbc	r10, r10
    1eec:	bb 08       	sbc	r11, r11
    1eee:	2a e0       	ldi	r18, 0x0A	; 10
    1ef0:	30 e0       	ldi	r19, 0x00	; 0
    1ef2:	b5 01       	movw	r22, r10
    1ef4:	a4 01       	movw	r20, r8
    1ef6:	ce 01       	movw	r24, r28
    1ef8:	0e 94 6f 0e 	call	0x1cde	; 0x1cde <_ZN5Print5printEli>
  // Extract digits from the remainder one at a time
  while (digits-- > 0)
  {
    remainder *= 10.0;
    int toPrint = int(remainder);
    n += print(toPrint);
    1efc:	e8 0e       	add	r14, r24
    1efe:	f9 1e       	adc	r15, r25
    remainder -= toPrint; 
    1f00:	c5 01       	movw	r24, r10
    1f02:	b4 01       	movw	r22, r8
    1f04:	0e 94 46 0a 	call	0x148c	; 0x148c <__floatsisf>
    1f08:	9b 01       	movw	r18, r22
    1f0a:	ac 01       	movw	r20, r24
    1f0c:	c3 01       	movw	r24, r6
    1f0e:	b2 01       	movw	r22, r4
    1f10:	0e 94 b8 08 	call	0x1170	; 0x1170 <__subsf3>
    1f14:	2b 01       	movw	r4, r22
    1f16:	3c 01       	movw	r6, r24
    1f18:	da 94       	dec	r13
    1f1a:	d7 cf       	rjmp	.-82     	; 0x1eca <_ZN5Print10printFloatEdh+0x158>
  } 
  
  return n;
}
    1f1c:	c7 01       	movw	r24, r14
    1f1e:	df 91       	pop	r29
    1f20:	cf 91       	pop	r28
    1f22:	ff 90       	pop	r15
    1f24:	ef 90       	pop	r14
    1f26:	df 90       	pop	r13
    1f28:	cf 90       	pop	r12
    1f2a:	bf 90       	pop	r11
    1f2c:	af 90       	pop	r10
    1f2e:	9f 90       	pop	r9
    1f30:	8f 90       	pop	r8
    1f32:	7f 90       	pop	r7
    1f34:	6f 90       	pop	r6
    1f36:	5f 90       	pop	r5
    1f38:	4f 90       	pop	r4
    1f3a:	08 95       	ret

00001f3c <_ZN5Print5printEdi>:
  else return printNumber(n, base);
}

size_t Print::print(double n, int digits)
{
  return printFloat(n, digits);
    1f3c:	0c 94 b9 0e 	jmp	0x1d72	; 0x1d72 <_ZN5Print10printFloatEdh>

00001f40 <_ZN5Print7printlnEdi>:
  n += println();
  return n;
}

size_t Print::println(double num, int digits)
{
    1f40:	0f 93       	push	r16
    1f42:	1f 93       	push	r17
    1f44:	cf 93       	push	r28
    1f46:	df 93       	push	r29
    1f48:	ec 01       	movw	r28, r24
  else return printNumber(n, base);
}

size_t Print::print(double n, int digits)
{
  return printFloat(n, digits);
    1f4a:	0e 94 b9 0e 	call	0x1d72	; 0x1d72 <_ZN5Print10printFloatEdh>
    1f4e:	8c 01       	movw	r16, r24
}

size_t Print::println(double num, int digits)
{
  size_t n = print(num, digits);
  n += println();
    1f50:	ce 01       	movw	r24, r28
    1f52:	0e 94 17 0e 	call	0x1c2e	; 0x1c2e <_ZN5Print7printlnEv>
  return n;
}
    1f56:	80 0f       	add	r24, r16
    1f58:	91 1f       	adc	r25, r17
    1f5a:	df 91       	pop	r29
    1f5c:	cf 91       	pop	r28
    1f5e:	1f 91       	pop	r17
    1f60:	0f 91       	pop	r16
    1f62:	08 95       	ret

00001f64 <__vector_16>:
	

#endif

	// busy wait
	__asm__ __volatile__ (
    1f64:	1f 92       	push	r1
    1f66:	0f 92       	push	r0
    1f68:	0f b6       	in	r0, 0x3f	; 63
    1f6a:	0f 92       	push	r0
    1f6c:	11 24       	eor	r1, r1
    1f6e:	2f 93       	push	r18
    1f70:	3f 93       	push	r19
    1f72:	8f 93       	push	r24
    1f74:	9f 93       	push	r25
    1f76:	af 93       	push	r26
    1f78:	bf 93       	push	r27
    1f7a:	80 91 a6 03 	lds	r24, 0x03A6	; 0x8003a6 <timer0_millis>
    1f7e:	90 91 a7 03 	lds	r25, 0x03A7	; 0x8003a7 <timer0_millis+0x1>
    1f82:	a0 91 a8 03 	lds	r26, 0x03A8	; 0x8003a8 <timer0_millis+0x2>
    1f86:	b0 91 a9 03 	lds	r27, 0x03A9	; 0x8003a9 <timer0_millis+0x3>
    1f8a:	30 91 a5 03 	lds	r19, 0x03A5	; 0x8003a5 <timer0_fract>
    1f8e:	23 e0       	ldi	r18, 0x03	; 3
    1f90:	23 0f       	add	r18, r19
    1f92:	2d 37       	cpi	r18, 0x7D	; 125
    1f94:	20 f4       	brcc	.+8      	; 0x1f9e <__vector_16+0x3a>
    1f96:	01 96       	adiw	r24, 0x01	; 1
    1f98:	a1 1d       	adc	r26, r1
    1f9a:	b1 1d       	adc	r27, r1
    1f9c:	05 c0       	rjmp	.+10     	; 0x1fa8 <__vector_16+0x44>
    1f9e:	26 e8       	ldi	r18, 0x86	; 134
    1fa0:	23 0f       	add	r18, r19
    1fa2:	02 96       	adiw	r24, 0x02	; 2
    1fa4:	a1 1d       	adc	r26, r1
    1fa6:	b1 1d       	adc	r27, r1
    1fa8:	20 93 a5 03 	sts	0x03A5, r18	; 0x8003a5 <timer0_fract>
    1fac:	80 93 a6 03 	sts	0x03A6, r24	; 0x8003a6 <timer0_millis>
    1fb0:	90 93 a7 03 	sts	0x03A7, r25	; 0x8003a7 <timer0_millis+0x1>
    1fb4:	a0 93 a8 03 	sts	0x03A8, r26	; 0x8003a8 <timer0_millis+0x2>
    1fb8:	b0 93 a9 03 	sts	0x03A9, r27	; 0x8003a9 <timer0_millis+0x3>
    1fbc:	80 91 aa 03 	lds	r24, 0x03AA	; 0x8003aa <timer0_overflow_count>
    1fc0:	90 91 ab 03 	lds	r25, 0x03AB	; 0x8003ab <timer0_overflow_count+0x1>
    1fc4:	a0 91 ac 03 	lds	r26, 0x03AC	; 0x8003ac <timer0_overflow_count+0x2>
    1fc8:	b0 91 ad 03 	lds	r27, 0x03AD	; 0x8003ad <timer0_overflow_count+0x3>
    1fcc:	01 96       	adiw	r24, 0x01	; 1
    1fce:	a1 1d       	adc	r26, r1
    1fd0:	b1 1d       	adc	r27, r1
    1fd2:	80 93 aa 03 	sts	0x03AA, r24	; 0x8003aa <timer0_overflow_count>
    1fd6:	90 93 ab 03 	sts	0x03AB, r25	; 0x8003ab <timer0_overflow_count+0x1>
    1fda:	a0 93 ac 03 	sts	0x03AC, r26	; 0x8003ac <timer0_overflow_count+0x2>
    1fde:	b0 93 ad 03 	sts	0x03AD, r27	; 0x8003ad <timer0_overflow_count+0x3>
    1fe2:	bf 91       	pop	r27
    1fe4:	af 91       	pop	r26
    1fe6:	9f 91       	pop	r25
    1fe8:	8f 91       	pop	r24
    1fea:	3f 91       	pop	r19
    1fec:	2f 91       	pop	r18
    1fee:	0f 90       	pop	r0
    1ff0:	0f be       	out	0x3f, r0	; 63
    1ff2:	0f 90       	pop	r0
    1ff4:	1f 90       	pop	r1
    1ff6:	18 95       	reti

00001ff8 <micros>:
    1ff8:	3f b7       	in	r19, 0x3f	; 63
    1ffa:	f8 94       	cli
    1ffc:	80 91 aa 03 	lds	r24, 0x03AA	; 0x8003aa <timer0_overflow_count>
    2000:	90 91 ab 03 	lds	r25, 0x03AB	; 0x8003ab <timer0_overflow_count+0x1>
    2004:	a0 91 ac 03 	lds	r26, 0x03AC	; 0x8003ac <timer0_overflow_count+0x2>
    2008:	b0 91 ad 03 	lds	r27, 0x03AD	; 0x8003ad <timer0_overflow_count+0x3>
    200c:	26 b5       	in	r18, 0x26	; 38
    200e:	a8 9b       	sbis	0x15, 0	; 21
    2010:	05 c0       	rjmp	.+10     	; 0x201c <micros+0x24>
    2012:	2f 3f       	cpi	r18, 0xFF	; 255
    2014:	19 f0       	breq	.+6      	; 0x201c <micros+0x24>
    2016:	01 96       	adiw	r24, 0x01	; 1
    2018:	a1 1d       	adc	r26, r1
    201a:	b1 1d       	adc	r27, r1
    201c:	3f bf       	out	0x3f, r19	; 63
    201e:	ba 2f       	mov	r27, r26
    2020:	a9 2f       	mov	r26, r25
    2022:	98 2f       	mov	r25, r24
    2024:	88 27       	eor	r24, r24
    2026:	82 0f       	add	r24, r18
    2028:	91 1d       	adc	r25, r1
    202a:	a1 1d       	adc	r26, r1
    202c:	b1 1d       	adc	r27, r1
    202e:	bc 01       	movw	r22, r24
    2030:	cd 01       	movw	r24, r26
    2032:	42 e0       	ldi	r20, 0x02	; 2
    2034:	66 0f       	add	r22, r22
    2036:	77 1f       	adc	r23, r23
    2038:	88 1f       	adc	r24, r24
    203a:	99 1f       	adc	r25, r25
    203c:	4a 95       	dec	r20
    203e:	d1 f7       	brne	.-12     	; 0x2034 <micros+0x3c>
    2040:	08 95       	ret

00002042 <delay>:
    2042:	8f 92       	push	r8
    2044:	9f 92       	push	r9
    2046:	af 92       	push	r10
    2048:	bf 92       	push	r11
    204a:	cf 92       	push	r12
    204c:	df 92       	push	r13
    204e:	ef 92       	push	r14
    2050:	ff 92       	push	r15
    2052:	6b 01       	movw	r12, r22
    2054:	7c 01       	movw	r14, r24
    2056:	0e 94 fc 0f 	call	0x1ff8	; 0x1ff8 <micros>
    205a:	4b 01       	movw	r8, r22
    205c:	5c 01       	movw	r10, r24
    205e:	c1 14       	cp	r12, r1
    2060:	d1 04       	cpc	r13, r1
    2062:	e1 04       	cpc	r14, r1
    2064:	f1 04       	cpc	r15, r1
    2066:	01 f1       	breq	.+64     	; 0x20a8 <delay+0x66>
    2068:	0e 94 5c 16 	call	0x2cb8	; 0x2cb8 <yield>
    206c:	0e 94 fc 0f 	call	0x1ff8	; 0x1ff8 <micros>
    2070:	dc 01       	movw	r26, r24
    2072:	cb 01       	movw	r24, r22
    2074:	88 19       	sub	r24, r8
    2076:	99 09       	sbc	r25, r9
    2078:	aa 09       	sbc	r26, r10
    207a:	bb 09       	sbc	r27, r11
    207c:	88 3e       	cpi	r24, 0xE8	; 232
    207e:	93 40       	sbci	r25, 0x03	; 3
    2080:	a1 05       	cpc	r26, r1
    2082:	b1 05       	cpc	r27, r1
    2084:	60 f3       	brcs	.-40     	; 0x205e <delay+0x1c>
    2086:	21 e0       	ldi	r18, 0x01	; 1
    2088:	c2 1a       	sub	r12, r18
    208a:	d1 08       	sbc	r13, r1
    208c:	e1 08       	sbc	r14, r1
    208e:	f1 08       	sbc	r15, r1
    2090:	88 ee       	ldi	r24, 0xE8	; 232
    2092:	88 0e       	add	r8, r24
    2094:	83 e0       	ldi	r24, 0x03	; 3
    2096:	98 1e       	adc	r9, r24
    2098:	a1 1c       	adc	r10, r1
    209a:	b1 1c       	adc	r11, r1
    209c:	c1 14       	cp	r12, r1
    209e:	d1 04       	cpc	r13, r1
    20a0:	e1 04       	cpc	r14, r1
    20a2:	f1 04       	cpc	r15, r1
    20a4:	19 f7       	brne	.-58     	; 0x206c <delay+0x2a>
    20a6:	db cf       	rjmp	.-74     	; 0x205e <delay+0x1c>
    20a8:	ff 90       	pop	r15
    20aa:	ef 90       	pop	r14
    20ac:	df 90       	pop	r13
    20ae:	cf 90       	pop	r12
    20b0:	bf 90       	pop	r11
    20b2:	af 90       	pop	r10
    20b4:	9f 90       	pop	r9
    20b6:	8f 90       	pop	r8
    20b8:	08 95       	ret

000020ba <init>:

void init()
{
	// this needs to be called before setup() or some functions won't
	// work there
	sei();
    20ba:	78 94       	sei
	
	// on the ATmega168, timer 0 is also used for fast hardware pwm
	// (using phase-correct PWM would mean that timer 0 overflowed half as often
	// resulting in different millis() behavior on the ATmega8 and ATmega168)
#if defined(TCCR0A) && defined(WGM01)
	sbi(TCCR0A, WGM01);
    20bc:	84 b5       	in	r24, 0x24	; 36
    20be:	82 60       	ori	r24, 0x02	; 2
    20c0:	84 bd       	out	0x24, r24	; 36
	sbi(TCCR0A, WGM00);
    20c2:	84 b5       	in	r24, 0x24	; 36
    20c4:	81 60       	ori	r24, 0x01	; 1
    20c6:	84 bd       	out	0x24, r24	; 36
	// this combination is for the standard atmega8
	sbi(TCCR0, CS01);
	sbi(TCCR0, CS00);
#elif defined(TCCR0B) && defined(CS01) && defined(CS00)
	// this combination is for the standard 168/328/1280/2560
	sbi(TCCR0B, CS01);
    20c8:	85 b5       	in	r24, 0x25	; 37
    20ca:	82 60       	ori	r24, 0x02	; 2
    20cc:	85 bd       	out	0x25, r24	; 37
	sbi(TCCR0B, CS00);
    20ce:	85 b5       	in	r24, 0x25	; 37
    20d0:	81 60       	ori	r24, 0x01	; 1
    20d2:	85 bd       	out	0x25, r24	; 37

	// enable timer 0 overflow interrupt
#if defined(TIMSK) && defined(TOIE0)
	sbi(TIMSK, TOIE0);
#elif defined(TIMSK0) && defined(TOIE0)
	sbi(TIMSK0, TOIE0);
    20d4:	ee e6       	ldi	r30, 0x6E	; 110
    20d6:	f0 e0       	ldi	r31, 0x00	; 0
    20d8:	80 81       	ld	r24, Z
    20da:	81 60       	ori	r24, 0x01	; 1
    20dc:	80 83       	st	Z, r24
	// this is better for motors as it ensures an even waveform
	// note, however, that fast pwm mode can achieve a frequency of up
	// 8 MHz (with a 16 MHz clock) at 50% duty cycle

#if defined(TCCR1B) && defined(CS11) && defined(CS10)
	TCCR1B = 0;
    20de:	e1 e8       	ldi	r30, 0x81	; 129
    20e0:	f0 e0       	ldi	r31, 0x00	; 0
    20e2:	10 82       	st	Z, r1

	// set timer 1 prescale factor to 64
	sbi(TCCR1B, CS11);
    20e4:	80 81       	ld	r24, Z
    20e6:	82 60       	ori	r24, 0x02	; 2
    20e8:	80 83       	st	Z, r24
#if F_CPU >= 8000000L
	sbi(TCCR1B, CS10);
    20ea:	80 81       	ld	r24, Z
    20ec:	81 60       	ori	r24, 0x01	; 1
    20ee:	80 83       	st	Z, r24
	sbi(TCCR1, CS10);
#endif
#endif
	// put timer 1 in 8-bit phase correct pwm mode
#if defined(TCCR1A) && defined(WGM10)
	sbi(TCCR1A, WGM10);
    20f0:	e0 e8       	ldi	r30, 0x80	; 128
    20f2:	f0 e0       	ldi	r31, 0x00	; 0
    20f4:	80 81       	ld	r24, Z
    20f6:	81 60       	ori	r24, 0x01	; 1
    20f8:	80 83       	st	Z, r24

	// set timer 2 prescale factor to 64
#if defined(TCCR2) && defined(CS22)
	sbi(TCCR2, CS22);
#elif defined(TCCR2B) && defined(CS22)
	sbi(TCCR2B, CS22);
    20fa:	e1 eb       	ldi	r30, 0xB1	; 177
    20fc:	f0 e0       	ldi	r31, 0x00	; 0
    20fe:	80 81       	ld	r24, Z
    2100:	84 60       	ori	r24, 0x04	; 4
    2102:	80 83       	st	Z, r24

	// configure timer 2 for phase correct pwm (8-bit)
#if defined(TCCR2) && defined(WGM20)
	sbi(TCCR2, WGM20);
#elif defined(TCCR2A) && defined(WGM20)
	sbi(TCCR2A, WGM20);
    2104:	e0 eb       	ldi	r30, 0xB0	; 176
    2106:	f0 e0       	ldi	r31, 0x00	; 0
    2108:	80 81       	ld	r24, Z
    210a:	81 60       	ori	r24, 0x01	; 1
    210c:	80 83       	st	Z, r24
#endif

#if defined(ADCSRA)
	// set a2d prescaler so we are inside the desired 50-200 KHz range.
	#if F_CPU >= 16000000 // 16 MHz / 128 = 125 KHz
		sbi(ADCSRA, ADPS2);
    210e:	ea e7       	ldi	r30, 0x7A	; 122
    2110:	f0 e0       	ldi	r31, 0x00	; 0
    2112:	80 81       	ld	r24, Z
    2114:	84 60       	ori	r24, 0x04	; 4
    2116:	80 83       	st	Z, r24
		sbi(ADCSRA, ADPS1);
    2118:	80 81       	ld	r24, Z
    211a:	82 60       	ori	r24, 0x02	; 2
    211c:	80 83       	st	Z, r24
		sbi(ADCSRA, ADPS0);
    211e:	80 81       	ld	r24, Z
    2120:	81 60       	ori	r24, 0x01	; 1
    2122:	80 83       	st	Z, r24
		cbi(ADCSRA, ADPS2);
		cbi(ADCSRA, ADPS1);
		sbi(ADCSRA, ADPS0);
	#endif
	// enable a2d conversions
	sbi(ADCSRA, ADEN);
    2124:	80 81       	ld	r24, Z
    2126:	80 68       	ori	r24, 0x80	; 128
    2128:	80 83       	st	Z, r24
	// here so they can be used as normal digital i/o; they will be
	// reconnected in Serial.begin()
#if defined(UCSRB)
	UCSRB = 0;
#elif defined(UCSR0B)
	UCSR0B = 0;
    212a:	10 92 c1 00 	sts	0x00C1, r1	; 0x8000c1 <__TEXT_REGION_LENGTH__+0x7e00c1>
    212e:	08 95       	ret

00002130 <analogWrite>:
// Right now, PWM output only works on the pins with
// hardware support.  These are defined in the appropriate
// pins_*.c file.  For the rest of the pins, we default
// to digital output.
void analogWrite(uint8_t pin, int val)
{
    2130:	1f 93       	push	r17
    2132:	cf 93       	push	r28
    2134:	df 93       	push	r29
    2136:	18 2f       	mov	r17, r24
    2138:	eb 01       	movw	r28, r22
	// We need to make sure the PWM output is enabled for those pins
	// that support it, as we turn it off when digitally reading or
	// writing with them.  Also, make sure the pin is in output mode
	// for consistenty with Wiring, which doesn't require a pinMode
	// call for the analog output pins.
	pinMode(pin, OUTPUT);
    213a:	61 e0       	ldi	r22, 0x01	; 1
    213c:	0e 94 20 11 	call	0x2240	; 0x2240 <pinMode>
	if (val == 0)
    2140:	20 97       	sbiw	r28, 0x00	; 0
    2142:	11 f4       	brne	.+4      	; 0x2148 <analogWrite+0x18>
	{
		digitalWrite(pin, LOW);
    2144:	60 e0       	ldi	r22, 0x00	; 0
    2146:	04 c0       	rjmp	.+8      	; 0x2150 <analogWrite+0x20>
	}
	else if (val == 255)
    2148:	cf 3f       	cpi	r28, 0xFF	; 255
    214a:	d1 05       	cpc	r29, r1
    214c:	39 f4       	brne	.+14     	; 0x215c <analogWrite+0x2c>
	{
		digitalWrite(pin, HIGH);
    214e:	61 e0       	ldi	r22, 0x01	; 1
    2150:	81 2f       	mov	r24, r17
				} else {
					digitalWrite(pin, HIGH);
				}
		}
	}
}
    2152:	df 91       	pop	r29
    2154:	cf 91       	pop	r28
    2156:	1f 91       	pop	r17
	{
		digitalWrite(pin, LOW);
	}
	else if (val == 255)
	{
		digitalWrite(pin, HIGH);
    2158:	0c 94 5c 11 	jmp	0x22b8	; 0x22b8 <digitalWrite>
	}
	else
	{
		switch(digitalPinToTimer(pin))
    215c:	e1 2f       	mov	r30, r17
    215e:	f0 e0       	ldi	r31, 0x00	; 0
    2160:	ef 52       	subi	r30, 0x2F	; 47
    2162:	ff 4f       	sbci	r31, 0xFF	; 255
    2164:	e4 91       	lpm	r30, Z
    2166:	e3 30       	cpi	r30, 0x03	; 3
    2168:	f9 f0       	breq	.+62     	; 0x21a8 <analogWrite+0x78>
    216a:	48 f4       	brcc	.+18     	; 0x217e <analogWrite+0x4e>
    216c:	e1 30       	cpi	r30, 0x01	; 1
    216e:	b9 f0       	breq	.+46     	; 0x219e <analogWrite+0x6e>
    2170:	e2 30       	cpi	r30, 0x02	; 2
    2172:	a1 f5       	brne	.+104    	; 0x21dc <analogWrite+0xac>
			#endif

			#if defined(TCCR0A) && defined(COM0B1)
			case TIMER0B:
				// connect pwm to pin on timer 0, channel B
				sbi(TCCR0A, COM0B1);
    2174:	84 b5       	in	r24, 0x24	; 36
    2176:	80 62       	ori	r24, 0x20	; 32
    2178:	84 bd       	out	0x24, r24	; 36
				OCR0B = val; // set pwm duty
    217a:	c8 bd       	out	0x28, r28	; 40
				break;
    217c:	34 c0       	rjmp	.+104    	; 0x21e6 <analogWrite+0xb6>
	{
		digitalWrite(pin, HIGH);
	}
	else
	{
		switch(digitalPinToTimer(pin))
    217e:	e7 30       	cpi	r30, 0x07	; 7
    2180:	e9 f0       	breq	.+58     	; 0x21bc <analogWrite+0x8c>
    2182:	e8 30       	cpi	r30, 0x08	; 8
    2184:	19 f1       	breq	.+70     	; 0x21cc <analogWrite+0x9c>
    2186:	e4 30       	cpi	r30, 0x04	; 4
    2188:	49 f5       	brne	.+82     	; 0x21dc <analogWrite+0xac>
			#endif

			#if defined(TCCR1A) && defined(COM1B1)
			case TIMER1B:
				// connect pwm to pin on timer 1, channel B
				sbi(TCCR1A, COM1B1);
    218a:	80 91 80 00 	lds	r24, 0x0080	; 0x800080 <__TEXT_REGION_LENGTH__+0x7e0080>
    218e:	80 62       	ori	r24, 0x20	; 32
    2190:	80 93 80 00 	sts	0x0080, r24	; 0x800080 <__TEXT_REGION_LENGTH__+0x7e0080>
				OCR1B = val; // set pwm duty
    2194:	d0 93 8b 00 	sts	0x008B, r29	; 0x80008b <__TEXT_REGION_LENGTH__+0x7e008b>
    2198:	c0 93 8a 00 	sts	0x008A, r28	; 0x80008a <__TEXT_REGION_LENGTH__+0x7e008a>
				break;
    219c:	24 c0       	rjmp	.+72     	; 0x21e6 <analogWrite+0xb6>
			#endif

			#if defined(TCCR0A) && defined(COM0A1)
			case TIMER0A:
				// connect pwm to pin on timer 0, channel A
				sbi(TCCR0A, COM0A1);
    219e:	84 b5       	in	r24, 0x24	; 36
    21a0:	80 68       	ori	r24, 0x80	; 128
    21a2:	84 bd       	out	0x24, r24	; 36
				OCR0A = val; // set pwm duty
    21a4:	c7 bd       	out	0x27, r28	; 39
				break;
    21a6:	1f c0       	rjmp	.+62     	; 0x21e6 <analogWrite+0xb6>
			#endif

			#if defined(TCCR1A) && defined(COM1A1)
			case TIMER1A:
				// connect pwm to pin on timer 1, channel A
				sbi(TCCR1A, COM1A1);
    21a8:	80 91 80 00 	lds	r24, 0x0080	; 0x800080 <__TEXT_REGION_LENGTH__+0x7e0080>
    21ac:	80 68       	ori	r24, 0x80	; 128
    21ae:	80 93 80 00 	sts	0x0080, r24	; 0x800080 <__TEXT_REGION_LENGTH__+0x7e0080>
				OCR1A = val; // set pwm duty
    21b2:	d0 93 89 00 	sts	0x0089, r29	; 0x800089 <__TEXT_REGION_LENGTH__+0x7e0089>
    21b6:	c0 93 88 00 	sts	0x0088, r28	; 0x800088 <__TEXT_REGION_LENGTH__+0x7e0088>
				break;
    21ba:	15 c0       	rjmp	.+42     	; 0x21e6 <analogWrite+0xb6>
			#endif

			#if defined(TCCR2A) && defined(COM2A1)
			case TIMER2A:
				// connect pwm to pin on timer 2, channel A
				sbi(TCCR2A, COM2A1);
    21bc:	80 91 b0 00 	lds	r24, 0x00B0	; 0x8000b0 <__TEXT_REGION_LENGTH__+0x7e00b0>
    21c0:	80 68       	ori	r24, 0x80	; 128
    21c2:	80 93 b0 00 	sts	0x00B0, r24	; 0x8000b0 <__TEXT_REGION_LENGTH__+0x7e00b0>
				OCR2A = val; // set pwm duty
    21c6:	c0 93 b3 00 	sts	0x00B3, r28	; 0x8000b3 <__TEXT_REGION_LENGTH__+0x7e00b3>
				break;
    21ca:	0d c0       	rjmp	.+26     	; 0x21e6 <analogWrite+0xb6>
			#endif

			#if defined(TCCR2A) && defined(COM2B1)
			case TIMER2B:
				// connect pwm to pin on timer 2, channel B
				sbi(TCCR2A, COM2B1);
    21cc:	80 91 b0 00 	lds	r24, 0x00B0	; 0x8000b0 <__TEXT_REGION_LENGTH__+0x7e00b0>
    21d0:	80 62       	ori	r24, 0x20	; 32
    21d2:	80 93 b0 00 	sts	0x00B0, r24	; 0x8000b0 <__TEXT_REGION_LENGTH__+0x7e00b0>
				OCR2B = val; // set pwm duty
    21d6:	c0 93 b4 00 	sts	0x00B4, r28	; 0x8000b4 <__TEXT_REGION_LENGTH__+0x7e00b4>
				break;
    21da:	05 c0       	rjmp	.+10     	; 0x21e6 <analogWrite+0xb6>
				break;
			#endif

			case NOT_ON_TIMER:
			default:
				if (val < 128) {
    21dc:	c0 38       	cpi	r28, 0x80	; 128
    21de:	d1 05       	cpc	r29, r1
    21e0:	0c f0       	brlt	.+2      	; 0x21e4 <analogWrite+0xb4>
    21e2:	b5 cf       	rjmp	.-150    	; 0x214e <analogWrite+0x1e>
    21e4:	af cf       	rjmp	.-162    	; 0x2144 <analogWrite+0x14>
				} else {
					digitalWrite(pin, HIGH);
				}
		}
	}
}
    21e6:	df 91       	pop	r29
    21e8:	cf 91       	pop	r28
    21ea:	1f 91       	pop	r17
    21ec:	08 95       	ret

000021ee <turnOffPWM>:
//
//static inline void turnOffPWM(uint8_t timer) __attribute__ ((always_inline));
//static inline void turnOffPWM(uint8_t timer)
static void turnOffPWM(uint8_t timer)
{
	switch (timer)
    21ee:	83 30       	cpi	r24, 0x03	; 3
    21f0:	81 f0       	breq	.+32     	; 0x2212 <turnOffPWM+0x24>
    21f2:	28 f4       	brcc	.+10     	; 0x21fe <turnOffPWM+0x10>
    21f4:	81 30       	cpi	r24, 0x01	; 1
    21f6:	99 f0       	breq	.+38     	; 0x221e <turnOffPWM+0x30>
    21f8:	82 30       	cpi	r24, 0x02	; 2
    21fa:	a1 f0       	breq	.+40     	; 0x2224 <turnOffPWM+0x36>
    21fc:	08 95       	ret
    21fe:	87 30       	cpi	r24, 0x07	; 7
    2200:	a9 f0       	breq	.+42     	; 0x222c <turnOffPWM+0x3e>
    2202:	88 30       	cpi	r24, 0x08	; 8
    2204:	b9 f0       	breq	.+46     	; 0x2234 <turnOffPWM+0x46>
    2206:	84 30       	cpi	r24, 0x04	; 4
    2208:	d1 f4       	brne	.+52     	; 0x223e <turnOffPWM+0x50>
	{
		#if defined(TCCR1A) && defined(COM1A1)
		case TIMER1A:   cbi(TCCR1A, COM1A1);    break;
		#endif
		#if defined(TCCR1A) && defined(COM1B1)
		case TIMER1B:   cbi(TCCR1A, COM1B1);    break;
    220a:	80 91 80 00 	lds	r24, 0x0080	; 0x800080 <__TEXT_REGION_LENGTH__+0x7e0080>
    220e:	8f 7d       	andi	r24, 0xDF	; 223
    2210:	03 c0       	rjmp	.+6      	; 0x2218 <turnOffPWM+0x2a>
static void turnOffPWM(uint8_t timer)
{
	switch (timer)
	{
		#if defined(TCCR1A) && defined(COM1A1)
		case TIMER1A:   cbi(TCCR1A, COM1A1);    break;
    2212:	80 91 80 00 	lds	r24, 0x0080	; 0x800080 <__TEXT_REGION_LENGTH__+0x7e0080>
    2216:	8f 77       	andi	r24, 0x7F	; 127
		#endif
		#if defined(TCCR1A) && defined(COM1B1)
		case TIMER1B:   cbi(TCCR1A, COM1B1);    break;
    2218:	80 93 80 00 	sts	0x0080, r24	; 0x800080 <__TEXT_REGION_LENGTH__+0x7e0080>
    221c:	08 95       	ret
		#if defined(TCCR2) && defined(COM21)
		case  TIMER2:   cbi(TCCR2, COM21);      break;
		#endif
		
		#if defined(TCCR0A) && defined(COM0A1)
		case  TIMER0A:  cbi(TCCR0A, COM0A1);    break;
    221e:	84 b5       	in	r24, 0x24	; 36
    2220:	8f 77       	andi	r24, 0x7F	; 127
    2222:	02 c0       	rjmp	.+4      	; 0x2228 <turnOffPWM+0x3a>
		#endif
		
		#if defined(TCCR0A) && defined(COM0B1)
		case  TIMER0B:  cbi(TCCR0A, COM0B1);    break;
    2224:	84 b5       	in	r24, 0x24	; 36
    2226:	8f 7d       	andi	r24, 0xDF	; 223
    2228:	84 bd       	out	0x24, r24	; 36
    222a:	08 95       	ret
		#endif
		#if defined(TCCR2A) && defined(COM2A1)
		case  TIMER2A:  cbi(TCCR2A, COM2A1);    break;
    222c:	80 91 b0 00 	lds	r24, 0x00B0	; 0x8000b0 <__TEXT_REGION_LENGTH__+0x7e00b0>
    2230:	8f 77       	andi	r24, 0x7F	; 127
    2232:	03 c0       	rjmp	.+6      	; 0x223a <turnOffPWM+0x4c>
		#endif
		#if defined(TCCR2A) && defined(COM2B1)
		case  TIMER2B:  cbi(TCCR2A, COM2B1);    break;
    2234:	80 91 b0 00 	lds	r24, 0x00B0	; 0x8000b0 <__TEXT_REGION_LENGTH__+0x7e00b0>
    2238:	8f 7d       	andi	r24, 0xDF	; 223
    223a:	80 93 b0 00 	sts	0x00B0, r24	; 0x8000b0 <__TEXT_REGION_LENGTH__+0x7e00b0>
    223e:	08 95       	ret

00002240 <pinMode>:
#define ARDUINO_MAIN
#include "wiring_private.h"
#include "pins_arduino.h"

void pinMode(uint8_t pin, uint8_t mode)
{
    2240:	cf 93       	push	r28
    2242:	df 93       	push	r29
	uint8_t bit = digitalPinToBitMask(pin);
    2244:	90 e0       	ldi	r25, 0x00	; 0
    2246:	fc 01       	movw	r30, r24
    2248:	eb 51       	subi	r30, 0x1B	; 27
    224a:	ff 4f       	sbci	r31, 0xFF	; 255
    224c:	24 91       	lpm	r18, Z
	uint8_t port = digitalPinToPort(pin);
    224e:	fc 01       	movw	r30, r24
    2250:	e7 50       	subi	r30, 0x07	; 7
    2252:	ff 4f       	sbci	r31, 0xFF	; 255
    2254:	84 91       	lpm	r24, Z
	volatile uint8_t *reg, *out;

	if (port == NOT_A_PIN) return;
    2256:	88 23       	and	r24, r24
    2258:	61 f1       	breq	.+88     	; 0x22b2 <pinMode+0x72>

	// JWS: can I let the optimizer do this?
	reg = portModeRegister(port);
    225a:	90 e0       	ldi	r25, 0x00	; 0
    225c:	88 0f       	add	r24, r24
    225e:	99 1f       	adc	r25, r25
    2260:	fc 01       	movw	r30, r24
    2262:	e9 5e       	subi	r30, 0xE9	; 233
    2264:	fe 4f       	sbci	r31, 0xFE	; 254
    2266:	c5 91       	lpm	r28, Z+
    2268:	d4 91       	lpm	r29, Z
	out = portOutputRegister(port);
    226a:	fc 01       	movw	r30, r24
    226c:	e3 5f       	subi	r30, 0xF3	; 243
    226e:	fe 4f       	sbci	r31, 0xFE	; 254
    2270:	a5 91       	lpm	r26, Z+
    2272:	b4 91       	lpm	r27, Z

	if (mode == INPUT) { 
    2274:	61 11       	cpse	r22, r1
    2276:	09 c0       	rjmp	.+18     	; 0x228a <pinMode+0x4a>
		uint8_t oldSREG = SREG;
    2278:	9f b7       	in	r25, 0x3f	; 63
                cli();
    227a:	f8 94       	cli
		*reg &= ~bit;
    227c:	88 81       	ld	r24, Y
    227e:	20 95       	com	r18
    2280:	82 23       	and	r24, r18
    2282:	88 83       	st	Y, r24
		*out &= ~bit;
    2284:	ec 91       	ld	r30, X
    2286:	2e 23       	and	r18, r30
    2288:	0b c0       	rjmp	.+22     	; 0x22a0 <pinMode+0x60>
		SREG = oldSREG;
	} else if (mode == INPUT_PULLUP) {
    228a:	62 30       	cpi	r22, 0x02	; 2
    228c:	61 f4       	brne	.+24     	; 0x22a6 <pinMode+0x66>
		uint8_t oldSREG = SREG;
    228e:	9f b7       	in	r25, 0x3f	; 63
                cli();
    2290:	f8 94       	cli
		*reg &= ~bit;
    2292:	38 81       	ld	r19, Y
    2294:	82 2f       	mov	r24, r18
    2296:	80 95       	com	r24
    2298:	83 23       	and	r24, r19
    229a:	88 83       	st	Y, r24
		*out |= bit;
    229c:	ec 91       	ld	r30, X
    229e:	2e 2b       	or	r18, r30
    22a0:	2c 93       	st	X, r18
		SREG = oldSREG;
    22a2:	9f bf       	out	0x3f, r25	; 63
    22a4:	06 c0       	rjmp	.+12     	; 0x22b2 <pinMode+0x72>
	} else {
		uint8_t oldSREG = SREG;
    22a6:	8f b7       	in	r24, 0x3f	; 63
                cli();
    22a8:	f8 94       	cli
		*reg |= bit;
    22aa:	e8 81       	ld	r30, Y
    22ac:	2e 2b       	or	r18, r30
    22ae:	28 83       	st	Y, r18
		SREG = oldSREG;
    22b0:	8f bf       	out	0x3f, r24	; 63
	}
}
    22b2:	df 91       	pop	r29
    22b4:	cf 91       	pop	r28
    22b6:	08 95       	ret

000022b8 <digitalWrite>:
		#endif
	}
}

void digitalWrite(uint8_t pin, uint8_t val)
{
    22b8:	1f 93       	push	r17
    22ba:	cf 93       	push	r28
    22bc:	df 93       	push	r29
	uint8_t timer = digitalPinToTimer(pin);
    22be:	28 2f       	mov	r18, r24
    22c0:	30 e0       	ldi	r19, 0x00	; 0
    22c2:	f9 01       	movw	r30, r18
    22c4:	ef 52       	subi	r30, 0x2F	; 47
    22c6:	ff 4f       	sbci	r31, 0xFF	; 255
    22c8:	84 91       	lpm	r24, Z
	uint8_t bit = digitalPinToBitMask(pin);
    22ca:	f9 01       	movw	r30, r18
    22cc:	eb 51       	subi	r30, 0x1B	; 27
    22ce:	ff 4f       	sbci	r31, 0xFF	; 255
    22d0:	d4 91       	lpm	r29, Z
	uint8_t port = digitalPinToPort(pin);
    22d2:	f9 01       	movw	r30, r18
    22d4:	e7 50       	subi	r30, 0x07	; 7
    22d6:	ff 4f       	sbci	r31, 0xFF	; 255
    22d8:	c4 91       	lpm	r28, Z
	volatile uint8_t *out;

	if (port == NOT_A_PIN) return;
    22da:	cc 23       	and	r28, r28
    22dc:	c9 f0       	breq	.+50     	; 0x2310 <digitalWrite+0x58>
    22de:	16 2f       	mov	r17, r22

	// If the pin that support PWM output, we need to turn it off
	// before doing a digital write.
	if (timer != NOT_ON_TIMER) turnOffPWM(timer);
    22e0:	81 11       	cpse	r24, r1
    22e2:	0e 94 f7 10 	call	0x21ee	; 0x21ee <turnOffPWM>

	out = portOutputRegister(port);
    22e6:	ec 2f       	mov	r30, r28
    22e8:	f0 e0       	ldi	r31, 0x00	; 0
    22ea:	ee 0f       	add	r30, r30
    22ec:	ff 1f       	adc	r31, r31
    22ee:	e3 5f       	subi	r30, 0xF3	; 243
    22f0:	fe 4f       	sbci	r31, 0xFE	; 254
    22f2:	a5 91       	lpm	r26, Z+
    22f4:	b4 91       	lpm	r27, Z

	uint8_t oldSREG = SREG;
    22f6:	8f b7       	in	r24, 0x3f	; 63
	cli();
    22f8:	f8 94       	cli

	if (val == LOW) {
    22fa:	11 11       	cpse	r17, r1
    22fc:	05 c0       	rjmp	.+10     	; 0x2308 <digitalWrite+0x50>
		*out &= ~bit;
    22fe:	9c 91       	ld	r25, X
    2300:	ed 2f       	mov	r30, r29
    2302:	e0 95       	com	r30
    2304:	e9 23       	and	r30, r25
    2306:	02 c0       	rjmp	.+4      	; 0x230c <digitalWrite+0x54>
	} else {
		*out |= bit;
    2308:	ec 91       	ld	r30, X
    230a:	ed 2b       	or	r30, r29
    230c:	ec 93       	st	X, r30
	}

	SREG = oldSREG;
    230e:	8f bf       	out	0x3f, r24	; 63
}
    2310:	df 91       	pop	r29
    2312:	cf 91       	pop	r28
    2314:	1f 91       	pop	r17
    2316:	08 95       	ret

00002318 <_ZN6StringD1Ev>:
	*this = dtostrf(value, (decimalPlaces + 2), decimalPlaces, buf);
}

String::~String()
{
	free(buffer);
    2318:	fc 01       	movw	r30, r24
    231a:	80 81       	ld	r24, Z
    231c:	91 81       	ldd	r25, Z+1	; 0x01
    231e:	0c 94 5b 19 	jmp	0x32b6	; 0x32b6 <free>

00002322 <_ZN6String10invalidateEv>:
	capacity = 0;
	len = 0;
}

void String::invalidate(void)
{
    2322:	cf 93       	push	r28
    2324:	df 93       	push	r29
    2326:	ec 01       	movw	r28, r24
	if (buffer) free(buffer);
    2328:	88 81       	ld	r24, Y
    232a:	99 81       	ldd	r25, Y+1	; 0x01
    232c:	00 97       	sbiw	r24, 0x00	; 0
    232e:	11 f0       	breq	.+4      	; 0x2334 <_ZN6String10invalidateEv+0x12>
    2330:	0e 94 5b 19 	call	0x32b6	; 0x32b6 <free>
	buffer = NULL;
    2334:	19 82       	std	Y+1, r1	; 0x01
    2336:	18 82       	st	Y, r1
	capacity = len = 0;
    2338:	1d 82       	std	Y+5, r1	; 0x05
    233a:	1c 82       	std	Y+4, r1	; 0x04
    233c:	1b 82       	std	Y+3, r1	; 0x03
    233e:	1a 82       	std	Y+2, r1	; 0x02
}
    2340:	df 91       	pop	r29
    2342:	cf 91       	pop	r28
    2344:	08 95       	ret

00002346 <_ZN6String12changeBufferEj>:
	}
	return 0;
}

unsigned char String::changeBuffer(unsigned int maxStrLen)
{
    2346:	0f 93       	push	r16
    2348:	1f 93       	push	r17
    234a:	cf 93       	push	r28
    234c:	df 93       	push	r29
    234e:	ec 01       	movw	r28, r24
    2350:	8b 01       	movw	r16, r22
	char *newbuffer = (char *)realloc(buffer, maxStrLen + 1);
    2352:	6f 5f       	subi	r22, 0xFF	; 255
    2354:	7f 4f       	sbci	r23, 0xFF	; 255
    2356:	88 81       	ld	r24, Y
    2358:	99 81       	ldd	r25, Y+1	; 0x01
    235a:	0e 94 f3 19 	call	0x33e6	; 0x33e6 <realloc>
	if (newbuffer) {
    235e:	00 97       	sbiw	r24, 0x00	; 0
    2360:	31 f0       	breq	.+12     	; 0x236e <_ZN6String12changeBufferEj+0x28>
		buffer = newbuffer;
    2362:	99 83       	std	Y+1, r25	; 0x01
    2364:	88 83       	st	Y, r24
		capacity = maxStrLen;
    2366:	1b 83       	std	Y+3, r17	; 0x03
    2368:	0a 83       	std	Y+2, r16	; 0x02
		return 1;
    236a:	81 e0       	ldi	r24, 0x01	; 1
    236c:	01 c0       	rjmp	.+2      	; 0x2370 <_ZN6String12changeBufferEj+0x2a>
	}
	return 0;
    236e:	80 e0       	ldi	r24, 0x00	; 0
}
    2370:	df 91       	pop	r29
    2372:	cf 91       	pop	r28
    2374:	1f 91       	pop	r17
    2376:	0f 91       	pop	r16
    2378:	08 95       	ret

0000237a <_ZN6String7reserveEj>:
	buffer = NULL;
	capacity = len = 0;
}

unsigned char String::reserve(unsigned int size)
{
    237a:	cf 93       	push	r28
    237c:	df 93       	push	r29
    237e:	ec 01       	movw	r28, r24
	if (buffer && capacity >= size) return 1;
    2380:	88 81       	ld	r24, Y
    2382:	99 81       	ldd	r25, Y+1	; 0x01
    2384:	89 2b       	or	r24, r25
    2386:	29 f0       	breq	.+10     	; 0x2392 <_ZN6String7reserveEj+0x18>
    2388:	8a 81       	ldd	r24, Y+2	; 0x02
    238a:	9b 81       	ldd	r25, Y+3	; 0x03
    238c:	86 17       	cp	r24, r22
    238e:	97 07       	cpc	r25, r23
    2390:	60 f4       	brcc	.+24     	; 0x23aa <_ZN6String7reserveEj+0x30>
	if (changeBuffer(size)) {
    2392:	ce 01       	movw	r24, r28
    2394:	0e 94 a3 11 	call	0x2346	; 0x2346 <_ZN6String12changeBufferEj>
    2398:	88 23       	and	r24, r24
    239a:	41 f0       	breq	.+16     	; 0x23ac <_ZN6String7reserveEj+0x32>
		if (len == 0) buffer[0] = 0;
    239c:	8c 81       	ldd	r24, Y+4	; 0x04
    239e:	9d 81       	ldd	r25, Y+5	; 0x05
    23a0:	89 2b       	or	r24, r25
    23a2:	19 f4       	brne	.+6      	; 0x23aa <_ZN6String7reserveEj+0x30>
    23a4:	e8 81       	ld	r30, Y
    23a6:	f9 81       	ldd	r31, Y+1	; 0x01
    23a8:	10 82       	st	Z, r1
    23aa:	81 e0       	ldi	r24, 0x01	; 1
		return 1;
	}
	return 0;
}
    23ac:	df 91       	pop	r29
    23ae:	cf 91       	pop	r28
    23b0:	08 95       	ret

000023b2 <_ZN6String4copyEPKcj>:
/*********************************************/
/*  Copy and Move                            */
/*********************************************/

String & String::copy(const char *cstr, unsigned int length)
{
    23b2:	ef 92       	push	r14
    23b4:	ff 92       	push	r15
    23b6:	0f 93       	push	r16
    23b8:	1f 93       	push	r17
    23ba:	cf 93       	push	r28
    23bc:	df 93       	push	r29
    23be:	ec 01       	movw	r28, r24
    23c0:	7b 01       	movw	r14, r22
    23c2:	8a 01       	movw	r16, r20
	if (!reserve(length)) {
    23c4:	ba 01       	movw	r22, r20
    23c6:	0e 94 bd 11 	call	0x237a	; 0x237a <_ZN6String7reserveEj>
    23ca:	81 11       	cpse	r24, r1
    23cc:	04 c0       	rjmp	.+8      	; 0x23d6 <_ZN6String4copyEPKcj+0x24>
		invalidate();
    23ce:	ce 01       	movw	r24, r28
    23d0:	0e 94 91 11 	call	0x2322	; 0x2322 <_ZN6String10invalidateEv>
		return *this;
    23d4:	07 c0       	rjmp	.+14     	; 0x23e4 <_ZN6String4copyEPKcj+0x32>
	}
	len = length;
    23d6:	1d 83       	std	Y+5, r17	; 0x05
    23d8:	0c 83       	std	Y+4, r16	; 0x04
	strcpy(buffer, cstr);
    23da:	b7 01       	movw	r22, r14
    23dc:	88 81       	ld	r24, Y
    23de:	99 81       	ldd	r25, Y+1	; 0x01
    23e0:	0e 94 d8 1a 	call	0x35b0	; 0x35b0 <strcpy>
	return *this;
}
    23e4:	ce 01       	movw	r24, r28
    23e6:	df 91       	pop	r29
    23e8:	cf 91       	pop	r28
    23ea:	1f 91       	pop	r17
    23ec:	0f 91       	pop	r16
    23ee:	ff 90       	pop	r15
    23f0:	ef 90       	pop	r14
    23f2:	08 95       	ret

000023f4 <_ZN6StringC1EPKc>:
/*  Memory Management                        */
/*********************************************/

inline void String::init(void)
{
	buffer = NULL;
    23f4:	fc 01       	movw	r30, r24
    23f6:	11 82       	std	Z+1, r1	; 0x01
    23f8:	10 82       	st	Z, r1
	capacity = 0;
    23fa:	13 82       	std	Z+3, r1	; 0x03
    23fc:	12 82       	std	Z+2, r1	; 0x02
	len = 0;
    23fe:	15 82       	std	Z+5, r1	; 0x05
    2400:	14 82       	std	Z+4, r1	; 0x04
/*********************************************/

String::String(const char *cstr)
{
	init();
	if (cstr) copy(cstr, strlen(cstr));
    2402:	61 15       	cp	r22, r1
    2404:	71 05       	cpc	r23, r1
    2406:	51 f0       	breq	.+20     	; 0x241c <_ZN6StringC1EPKc+0x28>
    2408:	fb 01       	movw	r30, r22
    240a:	01 90       	ld	r0, Z+
    240c:	00 20       	and	r0, r0
    240e:	e9 f7       	brne	.-6      	; 0x240a <_ZN6StringC1EPKc+0x16>
    2410:	31 97       	sbiw	r30, 0x01	; 1
    2412:	af 01       	movw	r20, r30
    2414:	46 1b       	sub	r20, r22
    2416:	57 0b       	sbc	r21, r23
    2418:	0c 94 d9 11 	jmp	0x23b2	; 0x23b2 <_ZN6String4copyEPKcj>
    241c:	08 95       	ret

0000241e <_ZN24Adafruit_HMC5883_UnifiedD1Ev>:
    value = Wire.receive();
  #endif  
  Wire.endTransmission();

  return value;
}
    241e:	08 95       	ret

00002420 <_ZN24Adafruit_HMC5883_Unified9getSensorEP8sensor_t>:
    2420:	0f 93       	push	r16
    2422:	1f 93       	push	r17
    2424:	cf 93       	push	r28
    2426:	df 93       	push	r29
    2428:	8c 01       	movw	r16, r24
    242a:	eb 01       	movw	r28, r22
    242c:	88 e2       	ldi	r24, 0x28	; 40
    242e:	fb 01       	movw	r30, r22
    2430:	11 92       	st	Z+, r1
    2432:	8a 95       	dec	r24
    2434:	e9 f7       	brne	.-6      	; 0x2430 <_ZN24Adafruit_HMC5883_Unified9getSensorEP8sensor_t+0x10>
    2436:	4b e0       	ldi	r20, 0x0B	; 11
    2438:	50 e0       	ldi	r21, 0x00	; 0
    243a:	60 e0       	ldi	r22, 0x00	; 0
    243c:	72 e0       	ldi	r23, 0x02	; 2
    243e:	ce 01       	movw	r24, r28
    2440:	0e 94 df 1a 	call	0x35be	; 0x35be <strncpy>
    2444:	1b 86       	std	Y+11, r1	; 0x0b
    2446:	81 e0       	ldi	r24, 0x01	; 1
    2448:	90 e0       	ldi	r25, 0x00	; 0
    244a:	a0 e0       	ldi	r26, 0x00	; 0
    244c:	b0 e0       	ldi	r27, 0x00	; 0
    244e:	8c 87       	std	Y+12, r24	; 0x0c
    2450:	9d 87       	std	Y+13, r25	; 0x0d
    2452:	ae 87       	std	Y+14, r26	; 0x0e
    2454:	bf 87       	std	Y+15, r27	; 0x0f
    2456:	f8 01       	movw	r30, r16
    2458:	84 89       	ldd	r24, Z+20	; 0x14
    245a:	95 89       	ldd	r25, Z+21	; 0x15
    245c:	a6 89       	ldd	r26, Z+22	; 0x16
    245e:	b7 89       	ldd	r27, Z+23	; 0x17
    2460:	88 8b       	std	Y+16, r24	; 0x10
    2462:	99 8b       	std	Y+17, r25	; 0x11
    2464:	aa 8b       	std	Y+18, r26	; 0x12
    2466:	bb 8b       	std	Y+19, r27	; 0x13
    2468:	82 e0       	ldi	r24, 0x02	; 2
    246a:	90 e0       	ldi	r25, 0x00	; 0
    246c:	a0 e0       	ldi	r26, 0x00	; 0
    246e:	b0 e0       	ldi	r27, 0x00	; 0
    2470:	8c 8b       	std	Y+20, r24	; 0x14
    2472:	9d 8b       	std	Y+21, r25	; 0x15
    2474:	ae 8b       	std	Y+22, r26	; 0x16
    2476:	bf 8b       	std	Y+23, r27	; 0x17
    2478:	1c a2       	std	Y+36, r1	; 0x24
    247a:	1d a2       	std	Y+37, r1	; 0x25
    247c:	1e a2       	std	Y+38, r1	; 0x26
    247e:	1f a2       	std	Y+39, r1	; 0x27
    2480:	80 e0       	ldi	r24, 0x00	; 0
    2482:	90 e0       	ldi	r25, 0x00	; 0
    2484:	a8 e4       	ldi	r26, 0x48	; 72
    2486:	b4 e4       	ldi	r27, 0x44	; 68
    2488:	88 8f       	std	Y+24, r24	; 0x18
    248a:	99 8f       	std	Y+25, r25	; 0x19
    248c:	aa 8f       	std	Y+26, r26	; 0x1a
    248e:	bb 8f       	std	Y+27, r27	; 0x1b
    2490:	80 e0       	ldi	r24, 0x00	; 0
    2492:	90 e0       	ldi	r25, 0x00	; 0
    2494:	a8 e4       	ldi	r26, 0x48	; 72
    2496:	b4 ec       	ldi	r27, 0xC4	; 196
    2498:	8c 8f       	std	Y+28, r24	; 0x1c
    249a:	9d 8f       	std	Y+29, r25	; 0x1d
    249c:	ae 8f       	std	Y+30, r26	; 0x1e
    249e:	bf 8f       	std	Y+31, r27	; 0x1f
    24a0:	8d ec       	ldi	r24, 0xCD	; 205
    24a2:	9c ec       	ldi	r25, 0xCC	; 204
    24a4:	ac e4       	ldi	r26, 0x4C	; 76
    24a6:	be e3       	ldi	r27, 0x3E	; 62
    24a8:	88 a3       	std	Y+32, r24	; 0x20
    24aa:	99 a3       	std	Y+33, r25	; 0x21
    24ac:	aa a3       	std	Y+34, r26	; 0x22
    24ae:	bb a3       	std	Y+35, r27	; 0x23
    24b0:	df 91       	pop	r29
    24b2:	cf 91       	pop	r28
    24b4:	1f 91       	pop	r17
    24b6:	0f 91       	pop	r16
    24b8:	08 95       	ret

000024ba <_ZN24Adafruit_HMC5883_UnifiedD0Ev>:
    24ba:	0c 94 5d 16 	jmp	0x2cba	; 0x2cba <_ZdlPv>

000024be <_ZN24Adafruit_HMC5883_UnifiedC1El>:
    24be:	2c e0       	ldi	r18, 0x0C	; 12
    24c0:	32 e0       	ldi	r19, 0x02	; 2
    24c2:	fc 01       	movw	r30, r24
    24c4:	31 83       	std	Z+1, r19	; 0x01
    24c6:	20 83       	st	Z, r18
    24c8:	44 8b       	std	Z+20, r20	; 0x14
    24ca:	55 8b       	std	Z+21, r21	; 0x15
    24cc:	66 8b       	std	Z+22, r22	; 0x16
    24ce:	77 8b       	std	Z+23, r23	; 0x17
    24d0:	08 95       	ret

000024d2 <_ZN24Adafruit_HMC5883_Unified4readEv>:
/*!
    @brief  Reads the raw data from the sensor
*/
/**************************************************************************/
void Adafruit_HMC5883_Unified::read()
{
    24d2:	6f 92       	push	r6
    24d4:	7f 92       	push	r7
    24d6:	8f 92       	push	r8
    24d8:	9f 92       	push	r9
    24da:	af 92       	push	r10
    24dc:	bf 92       	push	r11
    24de:	cf 92       	push	r12
    24e0:	df 92       	push	r13
    24e2:	ef 92       	push	r14
    24e4:	ff 92       	push	r15
    24e6:	0f 93       	push	r16
    24e8:	1f 93       	push	r17
    24ea:	cf 93       	push	r28
    24ec:	df 93       	push	r29
    24ee:	8c 01       	movw	r16, r24
  // Read the magnetometer
  Wire.beginTransmission((byte)HMC5883_ADDRESS_MAG);
    24f0:	6e e1       	ldi	r22, 0x1E	; 30
    24f2:	8e ea       	ldi	r24, 0xAE	; 174
    24f4:	93 e0       	ldi	r25, 0x03	; 3
    24f6:	0e 94 cc 15 	call	0x2b98	; 0x2b98 <_ZN7TwoWire17beginTransmissionEh>
    void onRequest( void (*)(void) );

    inline size_t write(unsigned long n) { return write((uint8_t)n); }
    inline size_t write(long n) { return write((uint8_t)n); }
    inline size_t write(unsigned int n) { return write((uint8_t)n); }
    inline size_t write(int n) { return write((uint8_t)n); }
    24fa:	63 e0       	ldi	r22, 0x03	; 3
    24fc:	8e ea       	ldi	r24, 0xAE	; 174
    24fe:	93 e0       	ldi	r25, 0x03	; 3
    2500:	0e 94 83 15 	call	0x2b06	; 0x2b06 <_ZN7TwoWire5writeEh>
  #if ARDUINO >= 100
    Wire.write(HMC5883_REGISTER_MAG_OUT_X_H_M);
  #else
    Wire.send(HMC5883_REGISTER_MAG_OUT_X_H_M);
  #endif
  Wire.endTransmission();
    2504:	8e ea       	ldi	r24, 0xAE	; 174
    2506:	93 e0       	ldi	r25, 0x03	; 3
    2508:	0e 94 55 16 	call	0x2caa	; 0x2caa <_ZN7TwoWire15endTransmissionEv>
  Wire.requestFrom((byte)HMC5883_ADDRESS_MAG, (byte)6);
    250c:	46 e0       	ldi	r20, 0x06	; 6
    250e:	6e e1       	ldi	r22, 0x1E	; 30
    2510:	8e ea       	ldi	r24, 0xAE	; 174
    2512:	93 e0       	ldi	r25, 0x03	; 3
    2514:	0e 94 4f 16 	call	0x2c9e	; 0x2c9e <_ZN7TwoWire11requestFromEhh>
  
  // Wait around until enough data is available
  while (Wire.available() < 6);
    2518:	8e ea       	ldi	r24, 0xAE	; 174
    251a:	93 e0       	ldi	r25, 0x03	; 3
    251c:	0e 94 27 15 	call	0x2a4e	; 0x2a4e <_ZN7TwoWire9availableEv>
    2520:	06 97       	sbiw	r24, 0x06	; 6
    2522:	d4 f3       	brlt	.-12     	; 0x2518 <_ZN24Adafruit_HMC5883_Unified4readEv+0x46>

  // Note high before low (different than accel)  
  #if ARDUINO >= 100
    uint8_t xhi = Wire.read();
    2524:	8e ea       	ldi	r24, 0xAE	; 174
    2526:	93 e0       	ldi	r25, 0x03	; 3
    2528:	0e 94 2f 15 	call	0x2a5e	; 0x2a5e <_ZN7TwoWire4readEv>
    252c:	68 2e       	mov	r6, r24
    uint8_t xlo = Wire.read();
    252e:	8e ea       	ldi	r24, 0xAE	; 174
    2530:	93 e0       	ldi	r25, 0x03	; 3
    2532:	0e 94 2f 15 	call	0x2a5e	; 0x2a5e <_ZN7TwoWire4readEv>
    2536:	78 2e       	mov	r7, r24
    uint8_t zhi = Wire.read();
    2538:	8e ea       	ldi	r24, 0xAE	; 174
    253a:	93 e0       	ldi	r25, 0x03	; 3
    253c:	0e 94 2f 15 	call	0x2a5e	; 0x2a5e <_ZN7TwoWire4readEv>
    2540:	a8 2e       	mov	r10, r24
    uint8_t zlo = Wire.read();
    2542:	8e ea       	ldi	r24, 0xAE	; 174
    2544:	93 e0       	ldi	r25, 0x03	; 3
    2546:	0e 94 2f 15 	call	0x2a5e	; 0x2a5e <_ZN7TwoWire4readEv>
    254a:	b8 2e       	mov	r11, r24
    uint8_t yhi = Wire.read();
    254c:	8e ea       	ldi	r24, 0xAE	; 174
    254e:	93 e0       	ldi	r25, 0x03	; 3
    2550:	0e 94 2f 15 	call	0x2a5e	; 0x2a5e <_ZN7TwoWire4readEv>
    2554:	88 2e       	mov	r8, r24
    uint8_t ylo = Wire.read();
    2556:	8e ea       	ldi	r24, 0xAE	; 174
    2558:	93 e0       	ldi	r25, 0x03	; 3
    255a:	0e 94 2f 15 	call	0x2a5e	; 0x2a5e <_ZN7TwoWire4readEv>
    255e:	98 2e       	mov	r9, r24
    uint8_t yhi = Wire.receive();
    uint8_t ylo = Wire.receive();
  #endif
  
  // Shift values to create properly formed integer (low byte first)
  _magData.x = (int16_t)(xlo | ((int16_t)xhi << 8));
    2560:	d6 2c       	mov	r13, r6
    2562:	c1 2c       	mov	r12, r1
    2564:	b6 01       	movw	r22, r12
    2566:	67 29       	or	r22, r7
    2568:	07 2e       	mov	r0, r23
    256a:	00 0c       	add	r0, r0
    256c:	88 0b       	sbc	r24, r24
    256e:	99 0b       	sbc	r25, r25
    2570:	0e 94 46 0a 	call	0x148c	; 0x148c <__floatsisf>
    2574:	f8 01       	movw	r30, r16
    2576:	64 83       	std	Z+4, r22	; 0x04
    2578:	75 83       	std	Z+5, r23	; 0x05
    257a:	86 83       	std	Z+6, r24	; 0x06
    257c:	97 83       	std	Z+7, r25	; 0x07
  _magData.y = (int16_t)(ylo | ((int16_t)yhi << 8));
    257e:	f8 2c       	mov	r15, r8
    2580:	e1 2c       	mov	r14, r1
    2582:	b7 01       	movw	r22, r14
    2584:	69 29       	or	r22, r9
    2586:	07 2e       	mov	r0, r23
    2588:	00 0c       	add	r0, r0
    258a:	88 0b       	sbc	r24, r24
    258c:	99 0b       	sbc	r25, r25
    258e:	0e 94 46 0a 	call	0x148c	; 0x148c <__floatsisf>
    2592:	f8 01       	movw	r30, r16
    2594:	60 87       	std	Z+8, r22	; 0x08
    2596:	71 87       	std	Z+9, r23	; 0x09
    2598:	82 87       	std	Z+10, r24	; 0x0a
    259a:	93 87       	std	Z+11, r25	; 0x0b
  _magData.z = (int16_t)(zlo | ((int16_t)zhi << 8));
    259c:	da 2d       	mov	r29, r10
    259e:	f0 e0       	ldi	r31, 0x00	; 0
    25a0:	cf 2f       	mov	r28, r31
    25a2:	be 01       	movw	r22, r28
    25a4:	6b 29       	or	r22, r11
    25a6:	07 2e       	mov	r0, r23
    25a8:	00 0c       	add	r0, r0
    25aa:	88 0b       	sbc	r24, r24
    25ac:	99 0b       	sbc	r25, r25
    25ae:	0e 94 46 0a 	call	0x148c	; 0x148c <__floatsisf>
    25b2:	f8 01       	movw	r30, r16
    25b4:	64 87       	std	Z+12, r22	; 0x0c
    25b6:	75 87       	std	Z+13, r23	; 0x0d
    25b8:	86 87       	std	Z+14, r24	; 0x0e
    25ba:	97 87       	std	Z+15, r25	; 0x0f
  
  // ToDo: Calculate orientation
  _magData.orientation = 0.0;
    25bc:	10 8a       	std	Z+16, r1	; 0x10
    25be:	11 8a       	std	Z+17, r1	; 0x11
    25c0:	12 8a       	std	Z+18, r1	; 0x12
    25c2:	13 8a       	std	Z+19, r1	; 0x13
}
    25c4:	df 91       	pop	r29
    25c6:	cf 91       	pop	r28
    25c8:	1f 91       	pop	r17
    25ca:	0f 91       	pop	r16
    25cc:	ff 90       	pop	r15
    25ce:	ef 90       	pop	r14
    25d0:	df 90       	pop	r13
    25d2:	cf 90       	pop	r12
    25d4:	bf 90       	pop	r11
    25d6:	af 90       	pop	r10
    25d8:	9f 90       	pop	r9
    25da:	8f 90       	pop	r8
    25dc:	7f 90       	pop	r7
    25de:	6f 90       	pop	r6
    25e0:	08 95       	ret

000025e2 <_ZN24Adafruit_HMC5883_Unified8getEventEP15sensors_event_t>:
/**************************************************************************/
/*! 
    @brief  Gets the most recent sensor event
*/
/**************************************************************************/
bool Adafruit_HMC5883_Unified::getEvent(sensors_event_t *event) {
    25e2:	cf 92       	push	r12
    25e4:	df 92       	push	r13
    25e6:	ef 92       	push	r14
    25e8:	ff 92       	push	r15
    25ea:	0f 93       	push	r16
    25ec:	1f 93       	push	r17
    25ee:	cf 93       	push	r28
    25f0:	df 93       	push	r29
    25f2:	8c 01       	movw	r16, r24
    25f4:	eb 01       	movw	r28, r22
  /* Clear the event */
  memset(event, 0, sizeof(sensors_event_t));
    25f6:	84 e2       	ldi	r24, 0x24	; 36
    25f8:	fb 01       	movw	r30, r22
    25fa:	11 92       	st	Z+, r1
    25fc:	8a 95       	dec	r24
    25fe:	e9 f7       	brne	.-6      	; 0x25fa <_ZN24Adafruit_HMC5883_Unified8getEventEP15sensors_event_t+0x18>

  /* Read new data */
  read();
    2600:	c8 01       	movw	r24, r16
    2602:	0e 94 69 12 	call	0x24d2	; 0x24d2 <_ZN24Adafruit_HMC5883_Unified4readEv>
  
  event->version   = sizeof(sensors_event_t);
    2606:	84 e2       	ldi	r24, 0x24	; 36
    2608:	90 e0       	ldi	r25, 0x00	; 0
    260a:	a0 e0       	ldi	r26, 0x00	; 0
    260c:	b0 e0       	ldi	r27, 0x00	; 0
    260e:	88 83       	st	Y, r24
    2610:	99 83       	std	Y+1, r25	; 0x01
    2612:	aa 83       	std	Y+2, r26	; 0x02
    2614:	bb 83       	std	Y+3, r27	; 0x03
  event->sensor_id = _sensorID;
    2616:	f8 01       	movw	r30, r16
    2618:	84 89       	ldd	r24, Z+20	; 0x14
    261a:	95 89       	ldd	r25, Z+21	; 0x15
    261c:	a6 89       	ldd	r26, Z+22	; 0x16
    261e:	b7 89       	ldd	r27, Z+23	; 0x17
    2620:	8c 83       	std	Y+4, r24	; 0x04
    2622:	9d 83       	std	Y+5, r25	; 0x05
    2624:	ae 83       	std	Y+6, r26	; 0x06
    2626:	bf 83       	std	Y+7, r27	; 0x07
  event->type      = SENSOR_TYPE_MAGNETIC_FIELD;
    2628:	82 e0       	ldi	r24, 0x02	; 2
    262a:	90 e0       	ldi	r25, 0x00	; 0
    262c:	a0 e0       	ldi	r26, 0x00	; 0
    262e:	b0 e0       	ldi	r27, 0x00	; 0
    2630:	88 87       	std	Y+8, r24	; 0x08
    2632:	99 87       	std	Y+9, r25	; 0x09
    2634:	aa 87       	std	Y+10, r26	; 0x0a
    2636:	bb 87       	std	Y+11, r27	; 0x0b
  event->timestamp = 0;
    2638:	18 8a       	std	Y+16, r1	; 0x10
    263a:	19 8a       	std	Y+17, r1	; 0x11
    263c:	1a 8a       	std	Y+18, r1	; 0x12
    263e:	1b 8a       	std	Y+19, r1	; 0x13
  event->magnetic.x = _magData.x / _hmc5883_Gauss_LSB_XY * SENSORS_GAUSS_TO_MICROTESLA;
    2640:	c0 90 42 01 	lds	r12, 0x0142	; 0x800142 <_ZL21_hmc5883_Gauss_LSB_XY>
    2644:	d0 90 43 01 	lds	r13, 0x0143	; 0x800143 <_ZL21_hmc5883_Gauss_LSB_XY+0x1>
    2648:	e0 90 44 01 	lds	r14, 0x0144	; 0x800144 <_ZL21_hmc5883_Gauss_LSB_XY+0x2>
    264c:	f0 90 45 01 	lds	r15, 0x0145	; 0x800145 <_ZL21_hmc5883_Gauss_LSB_XY+0x3>
    2650:	a7 01       	movw	r20, r14
    2652:	96 01       	movw	r18, r12
    2654:	64 81       	ldd	r22, Z+4	; 0x04
    2656:	75 81       	ldd	r23, Z+5	; 0x05
    2658:	86 81       	ldd	r24, Z+6	; 0x06
    265a:	97 81       	ldd	r25, Z+7	; 0x07
    265c:	0e 94 9c 09 	call	0x1338	; 0x1338 <__divsf3>
    2660:	20 e0       	ldi	r18, 0x00	; 0
    2662:	30 e0       	ldi	r19, 0x00	; 0
    2664:	48 ec       	ldi	r20, 0xC8	; 200
    2666:	52 e4       	ldi	r21, 0x42	; 66
    2668:	0e 94 2a 0b 	call	0x1654	; 0x1654 <__mulsf3>
    266c:	6c 8b       	std	Y+20, r22	; 0x14
    266e:	7d 8b       	std	Y+21, r23	; 0x15
    2670:	8e 8b       	std	Y+22, r24	; 0x16
    2672:	9f 8b       	std	Y+23, r25	; 0x17
  event->magnetic.y = _magData.y / _hmc5883_Gauss_LSB_XY * SENSORS_GAUSS_TO_MICROTESLA;
    2674:	a7 01       	movw	r20, r14
    2676:	96 01       	movw	r18, r12
    2678:	f8 01       	movw	r30, r16
    267a:	60 85       	ldd	r22, Z+8	; 0x08
    267c:	71 85       	ldd	r23, Z+9	; 0x09
    267e:	82 85       	ldd	r24, Z+10	; 0x0a
    2680:	93 85       	ldd	r25, Z+11	; 0x0b
    2682:	0e 94 9c 09 	call	0x1338	; 0x1338 <__divsf3>
    2686:	20 e0       	ldi	r18, 0x00	; 0
    2688:	30 e0       	ldi	r19, 0x00	; 0
    268a:	48 ec       	ldi	r20, 0xC8	; 200
    268c:	52 e4       	ldi	r21, 0x42	; 66
    268e:	0e 94 2a 0b 	call	0x1654	; 0x1654 <__mulsf3>
    2692:	68 8f       	std	Y+24, r22	; 0x18
    2694:	79 8f       	std	Y+25, r23	; 0x19
    2696:	8a 8f       	std	Y+26, r24	; 0x1a
    2698:	9b 8f       	std	Y+27, r25	; 0x1b
  event->magnetic.z = _magData.z / _hmc5883_Gauss_LSB_Z * SENSORS_GAUSS_TO_MICROTESLA;
    269a:	20 91 3e 01 	lds	r18, 0x013E	; 0x80013e <_ZL20_hmc5883_Gauss_LSB_Z>
    269e:	30 91 3f 01 	lds	r19, 0x013F	; 0x80013f <_ZL20_hmc5883_Gauss_LSB_Z+0x1>
    26a2:	40 91 40 01 	lds	r20, 0x0140	; 0x800140 <_ZL20_hmc5883_Gauss_LSB_Z+0x2>
    26a6:	50 91 41 01 	lds	r21, 0x0141	; 0x800141 <_ZL20_hmc5883_Gauss_LSB_Z+0x3>
    26aa:	f8 01       	movw	r30, r16
    26ac:	64 85       	ldd	r22, Z+12	; 0x0c
    26ae:	75 85       	ldd	r23, Z+13	; 0x0d
    26b0:	86 85       	ldd	r24, Z+14	; 0x0e
    26b2:	97 85       	ldd	r25, Z+15	; 0x0f
    26b4:	0e 94 9c 09 	call	0x1338	; 0x1338 <__divsf3>
    26b8:	20 e0       	ldi	r18, 0x00	; 0
    26ba:	30 e0       	ldi	r19, 0x00	; 0
    26bc:	48 ec       	ldi	r20, 0xC8	; 200
    26be:	52 e4       	ldi	r21, 0x42	; 66
    26c0:	0e 94 2a 0b 	call	0x1654	; 0x1654 <__mulsf3>
    26c4:	6c 8f       	std	Y+28, r22	; 0x1c
    26c6:	7d 8f       	std	Y+29, r23	; 0x1d
    26c8:	8e 8f       	std	Y+30, r24	; 0x1e
    26ca:	9f 8f       	std	Y+31, r25	; 0x1f
  
  return true;
}
    26cc:	81 e0       	ldi	r24, 0x01	; 1
    26ce:	df 91       	pop	r29
    26d0:	cf 91       	pop	r28
    26d2:	1f 91       	pop	r17
    26d4:	0f 91       	pop	r16
    26d6:	ff 90       	pop	r15
    26d8:	ef 90       	pop	r14
    26da:	df 90       	pop	r13
    26dc:	cf 90       	pop	r12
    26de:	08 95       	ret

000026e0 <_ZN6KalmanC1Ev>:
 e-mail   :  kristianl@tkjelectronics.com
 */

#include "Kalman.h"

Kalman::Kalman() {
    26e0:	fc 01       	movw	r30, r24
    /* We will set the variables like so, these can also be tuned by the user */
    Q_angle = 0.001f;
    26e2:	8f e6       	ldi	r24, 0x6F	; 111
    26e4:	92 e1       	ldi	r25, 0x12	; 18
    26e6:	a3 e8       	ldi	r26, 0x83	; 131
    26e8:	ba e3       	ldi	r27, 0x3A	; 58
    26ea:	80 83       	st	Z, r24
    26ec:	91 83       	std	Z+1, r25	; 0x01
    26ee:	a2 83       	std	Z+2, r26	; 0x02
    26f0:	b3 83       	std	Z+3, r27	; 0x03
    Q_bias = 0.003f;
    26f2:	86 ea       	ldi	r24, 0xA6	; 166
    26f4:	9b e9       	ldi	r25, 0x9B	; 155
    26f6:	a4 e4       	ldi	r26, 0x44	; 68
    26f8:	bb e3       	ldi	r27, 0x3B	; 59
    26fa:	84 83       	std	Z+4, r24	; 0x04
    26fc:	95 83       	std	Z+5, r25	; 0x05
    26fe:	a6 83       	std	Z+6, r26	; 0x06
    2700:	b7 83       	std	Z+7, r27	; 0x07
    R_measure = 0.03f;
    2702:	8f e8       	ldi	r24, 0x8F	; 143
    2704:	92 ec       	ldi	r25, 0xC2	; 194
    2706:	a5 ef       	ldi	r26, 0xF5	; 245
    2708:	bc e3       	ldi	r27, 0x3C	; 60
    270a:	80 87       	std	Z+8, r24	; 0x08
    270c:	91 87       	std	Z+9, r25	; 0x09
    270e:	a2 87       	std	Z+10, r26	; 0x0a
    2710:	b3 87       	std	Z+11, r27	; 0x0b

    angle = 0.0f; // Reset the angle
    2712:	14 86       	std	Z+12, r1	; 0x0c
    2714:	15 86       	std	Z+13, r1	; 0x0d
    2716:	16 86       	std	Z+14, r1	; 0x0e
    2718:	17 86       	std	Z+15, r1	; 0x0f
    bias = 0.0f; // Reset bias
    271a:	10 8a       	std	Z+16, r1	; 0x10
    271c:	11 8a       	std	Z+17, r1	; 0x11
    271e:	12 8a       	std	Z+18, r1	; 0x12
    2720:	13 8a       	std	Z+19, r1	; 0x13

    P[0][0] = 0.0f; // Since we assume that the bias is 0 and we know the starting angle (use setAngle), the error covariance matrix is set like so - see: http://en.wikipedia.org/wiki/Kalman_filter#Example_application.2C_technical
    2722:	10 8e       	std	Z+24, r1	; 0x18
    2724:	11 8e       	std	Z+25, r1	; 0x19
    2726:	12 8e       	std	Z+26, r1	; 0x1a
    2728:	13 8e       	std	Z+27, r1	; 0x1b
    P[0][1] = 0.0f;
    272a:	14 8e       	std	Z+28, r1	; 0x1c
    272c:	15 8e       	std	Z+29, r1	; 0x1d
    272e:	16 8e       	std	Z+30, r1	; 0x1e
    2730:	17 8e       	std	Z+31, r1	; 0x1f
    P[1][0] = 0.0f;
    2732:	10 a2       	std	Z+32, r1	; 0x20
    2734:	11 a2       	std	Z+33, r1	; 0x21
    2736:	12 a2       	std	Z+34, r1	; 0x22
    2738:	13 a2       	std	Z+35, r1	; 0x23
    P[1][1] = 0.0f;
    273a:	14 a2       	std	Z+36, r1	; 0x24
    273c:	15 a2       	std	Z+37, r1	; 0x25
    273e:	16 a2       	std	Z+38, r1	; 0x26
    2740:	17 a2       	std	Z+39, r1	; 0x27
    2742:	08 95       	ret

00002744 <_ZN6Kalman8getAngleEfff>:
};

// The angle should be in degrees and the rate should be in degrees per second and the delta time in seconds
float Kalman::getAngle(float newAngle, float newRate, float dt) {
    2744:	2f 92       	push	r2
    2746:	3f 92       	push	r3
    2748:	4f 92       	push	r4
    274a:	5f 92       	push	r5
    274c:	6f 92       	push	r6
    274e:	7f 92       	push	r7
    2750:	8f 92       	push	r8
    2752:	9f 92       	push	r9
    2754:	af 92       	push	r10
    2756:	bf 92       	push	r11
    2758:	cf 92       	push	r12
    275a:	df 92       	push	r13
    275c:	ef 92       	push	r14
    275e:	ff 92       	push	r15
    2760:	0f 93       	push	r16
    2762:	1f 93       	push	r17
    2764:	cf 93       	push	r28
    2766:	df 93       	push	r29
    2768:	cd b7       	in	r28, 0x3d	; 61
    276a:	de b7       	in	r29, 0x3e	; 62
    276c:	6c 97       	sbiw	r28, 0x1c	; 28
    276e:	0f b6       	in	r0, 0x3f	; 63
    2770:	f8 94       	cli
    2772:	de bf       	out	0x3e, r29	; 62
    2774:	0f be       	out	0x3f, r0	; 63
    2776:	cd bf       	out	0x3d, r28	; 61
    2778:	1c 01       	movw	r2, r24
    277a:	4d 8b       	std	Y+21, r20	; 0x15
    277c:	5e 8b       	std	Y+22, r21	; 0x16
    277e:	6f 8b       	std	Y+23, r22	; 0x17
    2780:	78 8f       	std	Y+24, r23	; 0x18
    2782:	c9 01       	movw	r24, r18
    2784:	b8 01       	movw	r22, r16
    // See my blog post for more information: http://blog.tkjelectronics.dk/2012/09/a-practical-approach-to-kalman-filter-and-how-to-implement-it

    // Discrete Kalman filter time update equations - Time Update ("Predict")
    // Update xhat - Project the state ahead
    /* Step 1 */
    rate = newRate - bias;
    2786:	d1 01       	movw	r26, r2
    2788:	50 96       	adiw	r26, 0x10	; 16
    278a:	2d 91       	ld	r18, X+
    278c:	3d 91       	ld	r19, X+
    278e:	4d 91       	ld	r20, X+
    2790:	5c 91       	ld	r21, X
    2792:	53 97       	sbiw	r26, 0x13	; 19
    2794:	29 8b       	std	Y+17, r18	; 0x11
    2796:	3a 8b       	std	Y+18, r19	; 0x12
    2798:	4b 8b       	std	Y+19, r20	; 0x13
    279a:	5c 8b       	std	Y+20, r21	; 0x14
    279c:	0e 94 b8 08 	call	0x1170	; 0x1170 <__subsf3>
    27a0:	9b 01       	movw	r18, r22
    27a2:	ac 01       	movw	r20, r24
    27a4:	f1 01       	movw	r30, r2
    27a6:	64 8b       	std	Z+20, r22	; 0x14
    27a8:	75 8b       	std	Z+21, r23	; 0x15
    27aa:	86 8b       	std	Z+22, r24	; 0x16
    27ac:	97 8b       	std	Z+23, r25	; 0x17
    angle += dt * rate;
    27ae:	c7 01       	movw	r24, r14
    27b0:	b6 01       	movw	r22, r12
    27b2:	0e 94 2a 0b 	call	0x1654	; 0x1654 <__mulsf3>
    27b6:	d1 01       	movw	r26, r2
    27b8:	1c 96       	adiw	r26, 0x0c	; 12
    27ba:	2d 91       	ld	r18, X+
    27bc:	3d 91       	ld	r19, X+
    27be:	4d 91       	ld	r20, X+
    27c0:	5c 91       	ld	r21, X
    27c2:	1f 97       	sbiw	r26, 0x0f	; 15
    27c4:	0e 94 b9 08 	call	0x1172	; 0x1172 <__addsf3>
    27c8:	6d 87       	std	Y+13, r22	; 0x0d
    27ca:	7e 87       	std	Y+14, r23	; 0x0e
    27cc:	8f 87       	std	Y+15, r24	; 0x0f
    27ce:	98 8b       	std	Y+16, r25	; 0x10

    // Update estimation error covariance - Project the error covariance ahead
    /* Step 2 */
    P[0][0] += dt * (dt*P[1][1] - P[0][1] - P[1][0] + Q_angle);
    27d0:	d1 01       	movw	r26, r2
    27d2:	94 96       	adiw	r26, 0x24	; 36
    27d4:	2d 91       	ld	r18, X+
    27d6:	3d 91       	ld	r19, X+
    27d8:	4d 91       	ld	r20, X+
    27da:	5c 91       	ld	r21, X
    27dc:	97 97       	sbiw	r26, 0x27	; 39
    27de:	2d 83       	std	Y+5, r18	; 0x05
    27e0:	3e 83       	std	Y+6, r19	; 0x06
    27e2:	4f 83       	std	Y+7, r20	; 0x07
    27e4:	58 87       	std	Y+8, r21	; 0x08
    27e6:	c7 01       	movw	r24, r14
    27e8:	b6 01       	movw	r22, r12
    27ea:	0e 94 2a 0b 	call	0x1654	; 0x1654 <__mulsf3>
    27ee:	4b 01       	movw	r8, r22
    27f0:	5c 01       	movw	r10, r24
    27f2:	f1 01       	movw	r30, r2
    27f4:	44 8c       	ldd	r4, Z+28	; 0x1c
    27f6:	55 8c       	ldd	r5, Z+29	; 0x1d
    27f8:	66 8c       	ldd	r6, Z+30	; 0x1e
    27fa:	77 8c       	ldd	r7, Z+31	; 0x1f
    27fc:	20 a1       	ldd	r18, Z+32	; 0x20
    27fe:	31 a1       	ldd	r19, Z+33	; 0x21
    2800:	42 a1       	ldd	r20, Z+34	; 0x22
    2802:	53 a1       	ldd	r21, Z+35	; 0x23
    2804:	29 87       	std	Y+9, r18	; 0x09
    2806:	3a 87       	std	Y+10, r19	; 0x0a
    2808:	4b 87       	std	Y+11, r20	; 0x0b
    280a:	5c 87       	std	Y+12, r21	; 0x0c
    280c:	a3 01       	movw	r20, r6
    280e:	92 01       	movw	r18, r4
    2810:	0e 94 b8 08 	call	0x1170	; 0x1170 <__subsf3>
    2814:	29 85       	ldd	r18, Y+9	; 0x09
    2816:	3a 85       	ldd	r19, Y+10	; 0x0a
    2818:	4b 85       	ldd	r20, Y+11	; 0x0b
    281a:	5c 85       	ldd	r21, Y+12	; 0x0c
    281c:	0e 94 b8 08 	call	0x1170	; 0x1170 <__subsf3>
    2820:	f1 01       	movw	r30, r2
    2822:	20 81       	ld	r18, Z
    2824:	31 81       	ldd	r19, Z+1	; 0x01
    2826:	42 81       	ldd	r20, Z+2	; 0x02
    2828:	53 81       	ldd	r21, Z+3	; 0x03
    282a:	0e 94 b9 08 	call	0x1172	; 0x1172 <__addsf3>
    282e:	9b 01       	movw	r18, r22
    2830:	ac 01       	movw	r20, r24
    2832:	c7 01       	movw	r24, r14
    2834:	b6 01       	movw	r22, r12
    2836:	0e 94 2a 0b 	call	0x1654	; 0x1654 <__mulsf3>
    283a:	d1 01       	movw	r26, r2
    283c:	58 96       	adiw	r26, 0x18	; 24
    283e:	2d 91       	ld	r18, X+
    2840:	3d 91       	ld	r19, X+
    2842:	4d 91       	ld	r20, X+
    2844:	5c 91       	ld	r21, X
    2846:	5b 97       	sbiw	r26, 0x1b	; 27
    2848:	0e 94 b9 08 	call	0x1172	; 0x1172 <__addsf3>
    284c:	69 83       	std	Y+1, r22	; 0x01
    284e:	7a 83       	std	Y+2, r23	; 0x02
    2850:	8b 83       	std	Y+3, r24	; 0x03
    2852:	9c 83       	std	Y+4, r25	; 0x04
    P[0][1] -= dt * P[1][1];
    2854:	a5 01       	movw	r20, r10
    2856:	94 01       	movw	r18, r8
    2858:	c3 01       	movw	r24, r6
    285a:	b2 01       	movw	r22, r4
    285c:	0e 94 b8 08 	call	0x1170	; 0x1170 <__subsf3>
    2860:	2b 01       	movw	r4, r22
    2862:	3c 01       	movw	r6, r24
    P[1][0] -= dt * P[1][1];
    2864:	a5 01       	movw	r20, r10
    2866:	94 01       	movw	r18, r8
    2868:	69 85       	ldd	r22, Y+9	; 0x09
    286a:	7a 85       	ldd	r23, Y+10	; 0x0a
    286c:	8b 85       	ldd	r24, Y+11	; 0x0b
    286e:	9c 85       	ldd	r25, Y+12	; 0x0c
    2870:	0e 94 b8 08 	call	0x1170	; 0x1170 <__subsf3>
    2874:	69 87       	std	Y+9, r22	; 0x09
    2876:	7a 87       	std	Y+10, r23	; 0x0a
    2878:	8b 87       	std	Y+11, r24	; 0x0b
    287a:	9c 87       	std	Y+12, r25	; 0x0c
    P[1][1] += Q_bias * dt;
    287c:	f1 01       	movw	r30, r2
    287e:	24 81       	ldd	r18, Z+4	; 0x04
    2880:	35 81       	ldd	r19, Z+5	; 0x05
    2882:	46 81       	ldd	r20, Z+6	; 0x06
    2884:	57 81       	ldd	r21, Z+7	; 0x07
    2886:	c7 01       	movw	r24, r14
    2888:	b6 01       	movw	r22, r12
    288a:	0e 94 2a 0b 	call	0x1654	; 0x1654 <__mulsf3>
    288e:	9b 01       	movw	r18, r22
    2890:	ac 01       	movw	r20, r24
    2892:	6d 81       	ldd	r22, Y+5	; 0x05
    2894:	7e 81       	ldd	r23, Y+6	; 0x06
    2896:	8f 81       	ldd	r24, Y+7	; 0x07
    2898:	98 85       	ldd	r25, Y+8	; 0x08
    289a:	0e 94 b9 08 	call	0x1172	; 0x1172 <__addsf3>
    289e:	69 8f       	std	Y+25, r22	; 0x19
    28a0:	7a 8f       	std	Y+26, r23	; 0x1a
    28a2:	8b 8f       	std	Y+27, r24	; 0x1b
    28a4:	9c 8f       	std	Y+28, r25	; 0x1c

    // Discrete Kalman filter measurement update equations - Measurement Update ("Correct")
    // Calculate Kalman gain - Compute the Kalman gain
    /* Step 4 */
    float S = P[0][0] + R_measure; // Estimate error
    28a6:	d1 01       	movw	r26, r2
    28a8:	18 96       	adiw	r26, 0x08	; 8
    28aa:	2d 91       	ld	r18, X+
    28ac:	3d 91       	ld	r19, X+
    28ae:	4d 91       	ld	r20, X+
    28b0:	5c 91       	ld	r21, X
    28b2:	1b 97       	sbiw	r26, 0x0b	; 11
    28b4:	69 81       	ldd	r22, Y+1	; 0x01
    28b6:	7a 81       	ldd	r23, Y+2	; 0x02
    28b8:	8b 81       	ldd	r24, Y+3	; 0x03
    28ba:	9c 81       	ldd	r25, Y+4	; 0x04
    28bc:	0e 94 b9 08 	call	0x1172	; 0x1172 <__addsf3>
    28c0:	6b 01       	movw	r12, r22
    28c2:	7c 01       	movw	r14, r24
    /* Step 5 */
    float K[2]; // Kalman gain - This is a 2x1 vector
    K[0] = P[0][0] / S;
    28c4:	9b 01       	movw	r18, r22
    28c6:	ac 01       	movw	r20, r24
    28c8:	69 81       	ldd	r22, Y+1	; 0x01
    28ca:	7a 81       	ldd	r23, Y+2	; 0x02
    28cc:	8b 81       	ldd	r24, Y+3	; 0x03
    28ce:	9c 81       	ldd	r25, Y+4	; 0x04
    28d0:	0e 94 9c 09 	call	0x1338	; 0x1338 <__divsf3>
    28d4:	4b 01       	movw	r8, r22
    28d6:	5c 01       	movw	r10, r24
    K[1] = P[1][0] / S;
    28d8:	a7 01       	movw	r20, r14
    28da:	96 01       	movw	r18, r12
    28dc:	69 85       	ldd	r22, Y+9	; 0x09
    28de:	7a 85       	ldd	r23, Y+10	; 0x0a
    28e0:	8b 85       	ldd	r24, Y+11	; 0x0b
    28e2:	9c 85       	ldd	r25, Y+12	; 0x0c
    28e4:	0e 94 9c 09 	call	0x1338	; 0x1338 <__divsf3>
    28e8:	6b 01       	movw	r12, r22
    28ea:	7c 01       	movw	r14, r24

    // Calculate angle and bias - Update estimate with measurement zk (newAngle)
    /* Step 3 */
    float y = newAngle - angle; // Angle difference
    28ec:	2d 85       	ldd	r18, Y+13	; 0x0d
    28ee:	3e 85       	ldd	r19, Y+14	; 0x0e
    28f0:	4f 85       	ldd	r20, Y+15	; 0x0f
    28f2:	58 89       	ldd	r21, Y+16	; 0x10
    28f4:	6d 89       	ldd	r22, Y+21	; 0x15
    28f6:	7e 89       	ldd	r23, Y+22	; 0x16
    28f8:	8f 89       	ldd	r24, Y+23	; 0x17
    28fa:	98 8d       	ldd	r25, Y+24	; 0x18
    28fc:	0e 94 b8 08 	call	0x1170	; 0x1170 <__subsf3>
    2900:	6d 83       	std	Y+5, r22	; 0x05
    2902:	7e 83       	std	Y+6, r23	; 0x06
    2904:	8f 83       	std	Y+7, r24	; 0x07
    2906:	98 87       	std	Y+8, r25	; 0x08
    /* Step 6 */
    angle += K[0] * y;
    2908:	9b 01       	movw	r18, r22
    290a:	ac 01       	movw	r20, r24
    290c:	c5 01       	movw	r24, r10
    290e:	b4 01       	movw	r22, r8
    2910:	0e 94 2a 0b 	call	0x1654	; 0x1654 <__mulsf3>
    2914:	9b 01       	movw	r18, r22
    2916:	ac 01       	movw	r20, r24
    2918:	6d 85       	ldd	r22, Y+13	; 0x0d
    291a:	7e 85       	ldd	r23, Y+14	; 0x0e
    291c:	8f 85       	ldd	r24, Y+15	; 0x0f
    291e:	98 89       	ldd	r25, Y+16	; 0x10
    2920:	0e 94 b9 08 	call	0x1172	; 0x1172 <__addsf3>
    2924:	6d 87       	std	Y+13, r22	; 0x0d
    2926:	7e 87       	std	Y+14, r23	; 0x0e
    2928:	8f 87       	std	Y+15, r24	; 0x0f
    292a:	98 8b       	std	Y+16, r25	; 0x10
    292c:	f1 01       	movw	r30, r2
    292e:	64 87       	std	Z+12, r22	; 0x0c
    2930:	75 87       	std	Z+13, r23	; 0x0d
    2932:	86 87       	std	Z+14, r24	; 0x0e
    2934:	97 87       	std	Z+15, r25	; 0x0f
    bias += K[1] * y;
    2936:	2d 81       	ldd	r18, Y+5	; 0x05
    2938:	3e 81       	ldd	r19, Y+6	; 0x06
    293a:	4f 81       	ldd	r20, Y+7	; 0x07
    293c:	58 85       	ldd	r21, Y+8	; 0x08
    293e:	c7 01       	movw	r24, r14
    2940:	b6 01       	movw	r22, r12
    2942:	0e 94 2a 0b 	call	0x1654	; 0x1654 <__mulsf3>
    2946:	9b 01       	movw	r18, r22
    2948:	ac 01       	movw	r20, r24
    294a:	69 89       	ldd	r22, Y+17	; 0x11
    294c:	7a 89       	ldd	r23, Y+18	; 0x12
    294e:	8b 89       	ldd	r24, Y+19	; 0x13
    2950:	9c 89       	ldd	r25, Y+20	; 0x14
    2952:	0e 94 b9 08 	call	0x1172	; 0x1172 <__addsf3>
    2956:	d1 01       	movw	r26, r2
    2958:	50 96       	adiw	r26, 0x10	; 16
    295a:	6d 93       	st	X+, r22
    295c:	7d 93       	st	X+, r23
    295e:	8d 93       	st	X+, r24
    2960:	9c 93       	st	X, r25
    2962:	53 97       	sbiw	r26, 0x13	; 19
    // Calculate estimation error covariance - Update the error covariance
    /* Step 7 */
    float P00_temp = P[0][0];
    float P01_temp = P[0][1];

    P[0][0] -= K[0] * P00_temp;
    2964:	29 81       	ldd	r18, Y+1	; 0x01
    2966:	3a 81       	ldd	r19, Y+2	; 0x02
    2968:	4b 81       	ldd	r20, Y+3	; 0x03
    296a:	5c 81       	ldd	r21, Y+4	; 0x04
    296c:	c5 01       	movw	r24, r10
    296e:	b4 01       	movw	r22, r8
    2970:	0e 94 2a 0b 	call	0x1654	; 0x1654 <__mulsf3>
    2974:	9b 01       	movw	r18, r22
    2976:	ac 01       	movw	r20, r24
    2978:	69 81       	ldd	r22, Y+1	; 0x01
    297a:	7a 81       	ldd	r23, Y+2	; 0x02
    297c:	8b 81       	ldd	r24, Y+3	; 0x03
    297e:	9c 81       	ldd	r25, Y+4	; 0x04
    2980:	0e 94 b8 08 	call	0x1170	; 0x1170 <__subsf3>
    2984:	f1 01       	movw	r30, r2
    2986:	60 8f       	std	Z+24, r22	; 0x18
    2988:	71 8f       	std	Z+25, r23	; 0x19
    298a:	82 8f       	std	Z+26, r24	; 0x1a
    298c:	93 8f       	std	Z+27, r25	; 0x1b
    P[0][1] -= K[0] * P01_temp;
    298e:	a3 01       	movw	r20, r6
    2990:	92 01       	movw	r18, r4
    2992:	c5 01       	movw	r24, r10
    2994:	b4 01       	movw	r22, r8
    2996:	0e 94 2a 0b 	call	0x1654	; 0x1654 <__mulsf3>
    299a:	9b 01       	movw	r18, r22
    299c:	ac 01       	movw	r20, r24
    299e:	c3 01       	movw	r24, r6
    29a0:	b2 01       	movw	r22, r4
    29a2:	0e 94 b8 08 	call	0x1170	; 0x1170 <__subsf3>
    29a6:	d1 01       	movw	r26, r2
    29a8:	5c 96       	adiw	r26, 0x1c	; 28
    29aa:	6d 93       	st	X+, r22
    29ac:	7d 93       	st	X+, r23
    29ae:	8d 93       	st	X+, r24
    29b0:	9c 93       	st	X, r25
    29b2:	5f 97       	sbiw	r26, 0x1f	; 31
    P[1][0] -= K[1] * P00_temp;
    29b4:	29 81       	ldd	r18, Y+1	; 0x01
    29b6:	3a 81       	ldd	r19, Y+2	; 0x02
    29b8:	4b 81       	ldd	r20, Y+3	; 0x03
    29ba:	5c 81       	ldd	r21, Y+4	; 0x04
    29bc:	c7 01       	movw	r24, r14
    29be:	b6 01       	movw	r22, r12
    29c0:	0e 94 2a 0b 	call	0x1654	; 0x1654 <__mulsf3>
    29c4:	9b 01       	movw	r18, r22
    29c6:	ac 01       	movw	r20, r24
    29c8:	69 85       	ldd	r22, Y+9	; 0x09
    29ca:	7a 85       	ldd	r23, Y+10	; 0x0a
    29cc:	8b 85       	ldd	r24, Y+11	; 0x0b
    29ce:	9c 85       	ldd	r25, Y+12	; 0x0c
    29d0:	0e 94 b8 08 	call	0x1170	; 0x1170 <__subsf3>
    29d4:	f1 01       	movw	r30, r2
    29d6:	60 a3       	std	Z+32, r22	; 0x20
    29d8:	71 a3       	std	Z+33, r23	; 0x21
    29da:	82 a3       	std	Z+34, r24	; 0x22
    29dc:	93 a3       	std	Z+35, r25	; 0x23
    P[1][1] -= K[1] * P01_temp;
    29de:	a3 01       	movw	r20, r6
    29e0:	92 01       	movw	r18, r4
    29e2:	c7 01       	movw	r24, r14
    29e4:	b6 01       	movw	r22, r12
    29e6:	0e 94 2a 0b 	call	0x1654	; 0x1654 <__mulsf3>
    29ea:	9b 01       	movw	r18, r22
    29ec:	ac 01       	movw	r20, r24
    29ee:	69 8d       	ldd	r22, Y+25	; 0x19
    29f0:	7a 8d       	ldd	r23, Y+26	; 0x1a
    29f2:	8b 8d       	ldd	r24, Y+27	; 0x1b
    29f4:	9c 8d       	ldd	r25, Y+28	; 0x1c
    29f6:	0e 94 b8 08 	call	0x1170	; 0x1170 <__subsf3>
    29fa:	d1 01       	movw	r26, r2
    29fc:	94 96       	adiw	r26, 0x24	; 36
    29fe:	6d 93       	st	X+, r22
    2a00:	7d 93       	st	X+, r23
    2a02:	8d 93       	st	X+, r24
    2a04:	9c 93       	st	X, r25
    2a06:	97 97       	sbiw	r26, 0x27	; 39

    return angle;
};
    2a08:	6d 85       	ldd	r22, Y+13	; 0x0d
    2a0a:	7e 85       	ldd	r23, Y+14	; 0x0e
    2a0c:	8f 85       	ldd	r24, Y+15	; 0x0f
    2a0e:	98 89       	ldd	r25, Y+16	; 0x10
    2a10:	6c 96       	adiw	r28, 0x1c	; 28
    2a12:	0f b6       	in	r0, 0x3f	; 63
    2a14:	f8 94       	cli
    2a16:	de bf       	out	0x3e, r29	; 62
    2a18:	0f be       	out	0x3f, r0	; 63
    2a1a:	cd bf       	out	0x3d, r28	; 61
    2a1c:	df 91       	pop	r29
    2a1e:	cf 91       	pop	r28
    2a20:	1f 91       	pop	r17
    2a22:	0f 91       	pop	r16
    2a24:	ff 90       	pop	r15
    2a26:	ef 90       	pop	r14
    2a28:	df 90       	pop	r13
    2a2a:	cf 90       	pop	r12
    2a2c:	bf 90       	pop	r11
    2a2e:	af 90       	pop	r10
    2a30:	9f 90       	pop	r9
    2a32:	8f 90       	pop	r8
    2a34:	7f 90       	pop	r7
    2a36:	6f 90       	pop	r6
    2a38:	5f 90       	pop	r5
    2a3a:	4f 90       	pop	r4
    2a3c:	3f 90       	pop	r3
    2a3e:	2f 90       	pop	r2
    2a40:	08 95       	ret

00002a42 <_ZN6Kalman8setAngleEf>:

void Kalman::setAngle(float angle) { this->angle = angle; }; // Used to set angle, this should be set as the starting angle
    2a42:	fc 01       	movw	r30, r24
    2a44:	44 87       	std	Z+12, r20	; 0x0c
    2a46:	55 87       	std	Z+13, r21	; 0x0d
    2a48:	66 87       	std	Z+14, r22	; 0x0e
    2a4a:	77 87       	std	Z+15, r23	; 0x0f
    2a4c:	08 95       	ret

00002a4e <_ZN7TwoWire9availableEv>:
}

// sets function called on slave read
void TwoWire::onRequest( void (*function)(void) )
{
  user_onRequest = function;
    2a4e:	80 91 de 03 	lds	r24, 0x03DE	; 0x8003de <_ZN7TwoWire14rxBufferLengthE>
    2a52:	90 e0       	ldi	r25, 0x00	; 0
    2a54:	20 91 df 03 	lds	r18, 0x03DF	; 0x8003df <_ZN7TwoWire13rxBufferIndexE>
    2a58:	82 1b       	sub	r24, r18
    2a5a:	91 09       	sbc	r25, r1
    2a5c:	08 95       	ret

00002a5e <_ZN7TwoWire4readEv>:
    2a5e:	90 91 df 03 	lds	r25, 0x03DF	; 0x8003df <_ZN7TwoWire13rxBufferIndexE>
    2a62:	80 91 de 03 	lds	r24, 0x03DE	; 0x8003de <_ZN7TwoWire14rxBufferLengthE>
    2a66:	98 17       	cp	r25, r24
    2a68:	50 f4       	brcc	.+20     	; 0x2a7e <_ZN7TwoWire4readEv+0x20>
    2a6a:	e9 2f       	mov	r30, r25
    2a6c:	f0 e0       	ldi	r31, 0x00	; 0
    2a6e:	e0 52       	subi	r30, 0x20	; 32
    2a70:	fc 4f       	sbci	r31, 0xFC	; 252
    2a72:	20 81       	ld	r18, Z
    2a74:	30 e0       	ldi	r19, 0x00	; 0
    2a76:	9f 5f       	subi	r25, 0xFF	; 255
    2a78:	90 93 df 03 	sts	0x03DF, r25	; 0x8003df <_ZN7TwoWire13rxBufferIndexE>
    2a7c:	02 c0       	rjmp	.+4      	; 0x2a82 <_ZN7TwoWire4readEv+0x24>
    2a7e:	2f ef       	ldi	r18, 0xFF	; 255
    2a80:	3f ef       	ldi	r19, 0xFF	; 255
    2a82:	c9 01       	movw	r24, r18
    2a84:	08 95       	ret

00002a86 <_ZN7TwoWire4peekEv>:
    2a86:	e0 91 df 03 	lds	r30, 0x03DF	; 0x8003df <_ZN7TwoWire13rxBufferIndexE>
    2a8a:	80 91 de 03 	lds	r24, 0x03DE	; 0x8003de <_ZN7TwoWire14rxBufferLengthE>
    2a8e:	e8 17       	cp	r30, r24
    2a90:	30 f4       	brcc	.+12     	; 0x2a9e <_ZN7TwoWire4peekEv+0x18>
    2a92:	f0 e0       	ldi	r31, 0x00	; 0
    2a94:	e0 52       	subi	r30, 0x20	; 32
    2a96:	fc 4f       	sbci	r31, 0xFC	; 252
    2a98:	80 81       	ld	r24, Z
    2a9a:	90 e0       	ldi	r25, 0x00	; 0
    2a9c:	08 95       	ret
    2a9e:	8f ef       	ldi	r24, 0xFF	; 255
    2aa0:	9f ef       	ldi	r25, 0xFF	; 255
    2aa2:	08 95       	ret

00002aa4 <_ZN7TwoWire5flushEv>:
    2aa4:	08 95       	ret

00002aa6 <_ZN7TwoWire5writeEPKhj>:
    2aa6:	cf 92       	push	r12
    2aa8:	df 92       	push	r13
    2aaa:	ef 92       	push	r14
    2aac:	ff 92       	push	r15
    2aae:	0f 93       	push	r16
    2ab0:	1f 93       	push	r17
    2ab2:	cf 93       	push	r28
    2ab4:	df 93       	push	r29
    2ab6:	7c 01       	movw	r14, r24
    2ab8:	26 2f       	mov	r18, r22
    2aba:	97 2f       	mov	r25, r23
    2abc:	8a 01       	movw	r16, r20
    2abe:	80 91 ba 03 	lds	r24, 0x03BA	; 0x8003ba <_ZN7TwoWire12transmittingE>
    2ac2:	88 23       	and	r24, r24
    2ac4:	91 f0       	breq	.+36     	; 0x2aea <_ZN7TwoWire5writeEPKhj+0x44>
    2ac6:	c6 2f       	mov	r28, r22
    2ac8:	d7 2f       	mov	r29, r23
    2aca:	6e 01       	movw	r12, r28
    2acc:	c4 0e       	add	r12, r20
    2ace:	d5 1e       	adc	r13, r21
    2ad0:	cc 15       	cp	r28, r12
    2ad2:	dd 05       	cpc	r29, r13
    2ad4:	71 f0       	breq	.+28     	; 0x2af2 <_ZN7TwoWire5writeEPKhj+0x4c>
    2ad6:	69 91       	ld	r22, Y+
    2ad8:	d7 01       	movw	r26, r14
    2ada:	ed 91       	ld	r30, X+
    2adc:	fc 91       	ld	r31, X
    2ade:	01 90       	ld	r0, Z+
    2ae0:	f0 81       	ld	r31, Z
    2ae2:	e0 2d       	mov	r30, r0
    2ae4:	c7 01       	movw	r24, r14
    2ae6:	09 95       	icall
    2ae8:	f3 cf       	rjmp	.-26     	; 0x2ad0 <_ZN7TwoWire5writeEPKhj+0x2a>
    2aea:	64 2f       	mov	r22, r20
    2aec:	82 2f       	mov	r24, r18
    2aee:	0e 94 1b 17 	call	0x2e36	; 0x2e36 <twi_transmit>
    2af2:	c8 01       	movw	r24, r16
    2af4:	df 91       	pop	r29
    2af6:	cf 91       	pop	r28
    2af8:	1f 91       	pop	r17
    2afa:	0f 91       	pop	r16
    2afc:	ff 90       	pop	r15
    2afe:	ef 90       	pop	r14
    2b00:	df 90       	pop	r13
    2b02:	cf 90       	pop	r12
    2b04:	08 95       	ret

00002b06 <_ZN7TwoWire5writeEh>:
    2b06:	cf 93       	push	r28
    2b08:	df 93       	push	r29
    2b0a:	1f 92       	push	r1
    2b0c:	cd b7       	in	r28, 0x3d	; 61
    2b0e:	de b7       	in	r29, 0x3e	; 62
    2b10:	69 83       	std	Y+1, r22	; 0x01
    2b12:	20 91 ba 03 	lds	r18, 0x03BA	; 0x8003ba <_ZN7TwoWire12transmittingE>
    2b16:	22 23       	and	r18, r18
    2b18:	d1 f0       	breq	.+52     	; 0x2b4e <_ZN7TwoWire5writeEh+0x48>
    2b1a:	20 91 bb 03 	lds	r18, 0x03BB	; 0x8003bb <_ZN7TwoWire14txBufferLengthE>
    2b1e:	20 32       	cpi	r18, 0x20	; 32
    2b20:	40 f0       	brcs	.+16     	; 0x2b32 <_ZN7TwoWire5writeEh+0x2c>
    2b22:	21 e0       	ldi	r18, 0x01	; 1
    2b24:	30 e0       	ldi	r19, 0x00	; 0
    2b26:	fc 01       	movw	r30, r24
    2b28:	33 83       	std	Z+3, r19	; 0x03
    2b2a:	22 83       	std	Z+2, r18	; 0x02
    2b2c:	80 e0       	ldi	r24, 0x00	; 0
    2b2e:	90 e0       	ldi	r25, 0x00	; 0
    2b30:	15 c0       	rjmp	.+42     	; 0x2b5c <_ZN7TwoWire5writeEh+0x56>
    2b32:	80 91 bc 03 	lds	r24, 0x03BC	; 0x8003bc <_ZN7TwoWire13txBufferIndexE>
    2b36:	e8 2f       	mov	r30, r24
    2b38:	f0 e0       	ldi	r31, 0x00	; 0
    2b3a:	e3 54       	subi	r30, 0x43	; 67
    2b3c:	fc 4f       	sbci	r31, 0xFC	; 252
    2b3e:	99 81       	ldd	r25, Y+1	; 0x01
    2b40:	90 83       	st	Z, r25
    2b42:	8f 5f       	subi	r24, 0xFF	; 255
    2b44:	80 93 bc 03 	sts	0x03BC, r24	; 0x8003bc <_ZN7TwoWire13txBufferIndexE>
    2b48:	80 93 bb 03 	sts	0x03BB, r24	; 0x8003bb <_ZN7TwoWire14txBufferLengthE>
    2b4c:	05 c0       	rjmp	.+10     	; 0x2b58 <_ZN7TwoWire5writeEh+0x52>
    2b4e:	61 e0       	ldi	r22, 0x01	; 1
    2b50:	ce 01       	movw	r24, r28
    2b52:	01 96       	adiw	r24, 0x01	; 1
    2b54:	0e 94 1b 17 	call	0x2e36	; 0x2e36 <twi_transmit>
    2b58:	81 e0       	ldi	r24, 0x01	; 1
    2b5a:	90 e0       	ldi	r25, 0x00	; 0
    2b5c:	0f 90       	pop	r0
    2b5e:	df 91       	pop	r29
    2b60:	cf 91       	pop	r28
    2b62:	08 95       	ret

00002b64 <_ZN7TwoWireC1Ev>:
    2b64:	fc 01       	movw	r30, r24
    2b66:	13 82       	std	Z+3, r1	; 0x03
    2b68:	12 82       	std	Z+2, r1	; 0x02
    2b6a:	88 ee       	ldi	r24, 0xE8	; 232
    2b6c:	93 e0       	ldi	r25, 0x03	; 3
    2b6e:	a0 e0       	ldi	r26, 0x00	; 0
    2b70:	b0 e0       	ldi	r27, 0x00	; 0
    2b72:	84 83       	std	Z+4, r24	; 0x04
    2b74:	95 83       	std	Z+5, r25	; 0x05
    2b76:	a6 83       	std	Z+6, r26	; 0x06
    2b78:	b7 83       	std	Z+7, r27	; 0x07
    2b7a:	8a e1       	ldi	r24, 0x1A	; 26
    2b7c:	92 e0       	ldi	r25, 0x02	; 2
    2b7e:	91 83       	std	Z+1, r25	; 0x01
    2b80:	80 83       	st	Z, r24
    2b82:	08 95       	ret

00002b84 <_ZN7TwoWire5beginEv>:
    2b84:	10 92 df 03 	sts	0x03DF, r1	; 0x8003df <_ZN7TwoWire13rxBufferIndexE>
    2b88:	10 92 de 03 	sts	0x03DE, r1	; 0x8003de <_ZN7TwoWire14rxBufferLengthE>
    2b8c:	10 92 bc 03 	sts	0x03BC, r1	; 0x8003bc <_ZN7TwoWire13txBufferIndexE>
    2b90:	10 92 bb 03 	sts	0x03BB, r1	; 0x8003bb <_ZN7TwoWire14txBufferLengthE>
    2b94:	0c 94 5f 16 	jmp	0x2cbe	; 0x2cbe <twi_init>

00002b98 <_ZN7TwoWire17beginTransmissionEh>:
    2b98:	81 e0       	ldi	r24, 0x01	; 1
    2b9a:	80 93 ba 03 	sts	0x03BA, r24	; 0x8003ba <_ZN7TwoWire12transmittingE>
    2b9e:	60 93 dd 03 	sts	0x03DD, r22	; 0x8003dd <_ZN7TwoWire9txAddressE>
    2ba2:	10 92 bc 03 	sts	0x03BC, r1	; 0x8003bc <_ZN7TwoWire13txBufferIndexE>
    2ba6:	10 92 bb 03 	sts	0x03BB, r1	; 0x8003bb <_ZN7TwoWire14txBufferLengthE>
    2baa:	08 95       	ret

00002bac <_ZN7TwoWire17beginTransmissionEi>:
    2bac:	0c 94 cc 15 	jmp	0x2b98	; 0x2b98 <_ZN7TwoWire17beginTransmissionEh>

00002bb0 <_ZN7TwoWire15endTransmissionEh>:
    2bb0:	0f 93       	push	r16
    2bb2:	06 2f       	mov	r16, r22
    2bb4:	21 e0       	ldi	r18, 0x01	; 1
    2bb6:	40 91 bb 03 	lds	r20, 0x03BB	; 0x8003bb <_ZN7TwoWire14txBufferLengthE>
    2bba:	6d eb       	ldi	r22, 0xBD	; 189
    2bbc:	73 e0       	ldi	r23, 0x03	; 3
    2bbe:	80 91 dd 03 	lds	r24, 0x03DD	; 0x8003dd <_ZN7TwoWire9txAddressE>
    2bc2:	0e 94 c5 16 	call	0x2d8a	; 0x2d8a <twi_writeTo>
    2bc6:	10 92 bc 03 	sts	0x03BC, r1	; 0x8003bc <_ZN7TwoWire13txBufferIndexE>
    2bca:	10 92 bb 03 	sts	0x03BB, r1	; 0x8003bb <_ZN7TwoWire14txBufferLengthE>
    2bce:	10 92 ba 03 	sts	0x03BA, r1	; 0x8003ba <_ZN7TwoWire12transmittingE>
    2bd2:	0f 91       	pop	r16
    2bd4:	08 95       	ret

00002bd6 <_ZN7TwoWire11requestFromEhhmhh>:
    2bd6:	4f 92       	push	r4
    2bd8:	5f 92       	push	r5
    2bda:	6f 92       	push	r6
    2bdc:	7f 92       	push	r7
    2bde:	af 92       	push	r10
    2be0:	bf 92       	push	r11
    2be2:	cf 92       	push	r12
    2be4:	ef 92       	push	r14
    2be6:	ff 92       	push	r15
    2be8:	0f 93       	push	r16
    2bea:	1f 93       	push	r17
    2bec:	cf 93       	push	r28
    2bee:	df 93       	push	r29
    2bf0:	5c 01       	movw	r10, r24
    2bf2:	f6 2e       	mov	r15, r22
    2bf4:	d4 2f       	mov	r29, r20
    2bf6:	28 01       	movw	r4, r16
    2bf8:	39 01       	movw	r6, r18
    2bfa:	ee 20       	and	r14, r14
    2bfc:	21 f1       	breq	.+72     	; 0x2c46 <_ZN7TwoWire11requestFromEhhmhh+0x70>
    2bfe:	0e 94 cc 15 	call	0x2b98	; 0x2b98 <_ZN7TwoWire17beginTransmissionEh>
    2c02:	ce 2d       	mov	r28, r14
    2c04:	c4 30       	cpi	r28, 0x04	; 4
    2c06:	08 f0       	brcs	.+2      	; 0x2c0a <_ZN7TwoWire11requestFromEhhmhh+0x34>
    2c08:	c3 e0       	ldi	r28, 0x03	; 3
    2c0a:	c1 50       	subi	r28, 0x01	; 1
    2c0c:	c0 f0       	brcs	.+48     	; 0x2c3e <_ZN7TwoWire11requestFromEhhmhh+0x68>
    2c0e:	d5 01       	movw	r26, r10
    2c10:	ed 91       	ld	r30, X+
    2c12:	fc 91       	ld	r31, X
    2c14:	b8 e0       	ldi	r27, 0x08	; 8
    2c16:	cb 9f       	mul	r28, r27
    2c18:	c0 01       	movw	r24, r0
    2c1a:	11 24       	eor	r1, r1
    2c1c:	a3 01       	movw	r20, r6
    2c1e:	92 01       	movw	r18, r4
    2c20:	04 c0       	rjmp	.+8      	; 0x2c2a <_ZN7TwoWire11requestFromEhhmhh+0x54>
    2c22:	56 95       	lsr	r21
    2c24:	47 95       	ror	r20
    2c26:	37 95       	ror	r19
    2c28:	27 95       	ror	r18
    2c2a:	8a 95       	dec	r24
    2c2c:	d2 f7       	brpl	.-12     	; 0x2c22 <_ZN7TwoWire11requestFromEhhmhh+0x4c>
    2c2e:	ca 01       	movw	r24, r20
    2c30:	b9 01       	movw	r22, r18
    2c32:	01 90       	ld	r0, Z+
    2c34:	f0 81       	ld	r31, Z
    2c36:	e0 2d       	mov	r30, r0
    2c38:	c5 01       	movw	r24, r10
    2c3a:	09 95       	icall
    2c3c:	e6 cf       	rjmp	.-52     	; 0x2c0a <_ZN7TwoWire11requestFromEhhmhh+0x34>
    2c3e:	60 e0       	ldi	r22, 0x00	; 0
    2c40:	c5 01       	movw	r24, r10
    2c42:	0e 94 d8 15 	call	0x2bb0	; 0x2bb0 <_ZN7TwoWire15endTransmissionEh>
    2c46:	4d 2f       	mov	r20, r29
    2c48:	d1 32       	cpi	r29, 0x21	; 33
    2c4a:	08 f0       	brcs	.+2      	; 0x2c4e <_ZN7TwoWire11requestFromEhhmhh+0x78>
    2c4c:	40 e2       	ldi	r20, 0x20	; 32
    2c4e:	2c 2d       	mov	r18, r12
    2c50:	60 ee       	ldi	r22, 0xE0	; 224
    2c52:	73 e0       	ldi	r23, 0x03	; 3
    2c54:	8f 2d       	mov	r24, r15
    2c56:	0e 94 7d 16 	call	0x2cfa	; 0x2cfa <twi_readFrom>
    2c5a:	10 92 df 03 	sts	0x03DF, r1	; 0x8003df <_ZN7TwoWire13rxBufferIndexE>
    2c5e:	80 93 de 03 	sts	0x03DE, r24	; 0x8003de <_ZN7TwoWire14rxBufferLengthE>
    2c62:	df 91       	pop	r29
    2c64:	cf 91       	pop	r28
    2c66:	1f 91       	pop	r17
    2c68:	0f 91       	pop	r16
    2c6a:	ff 90       	pop	r15
    2c6c:	ef 90       	pop	r14
    2c6e:	cf 90       	pop	r12
    2c70:	bf 90       	pop	r11
    2c72:	af 90       	pop	r10
    2c74:	7f 90       	pop	r7
    2c76:	6f 90       	pop	r6
    2c78:	5f 90       	pop	r5
    2c7a:	4f 90       	pop	r4
    2c7c:	08 95       	ret

00002c7e <_ZN7TwoWire11requestFromEhhh>:
    2c7e:	cf 92       	push	r12
    2c80:	ef 92       	push	r14
    2c82:	0f 93       	push	r16
    2c84:	1f 93       	push	r17
    2c86:	c2 2e       	mov	r12, r18
    2c88:	e1 2c       	mov	r14, r1
    2c8a:	00 e0       	ldi	r16, 0x00	; 0
    2c8c:	10 e0       	ldi	r17, 0x00	; 0
    2c8e:	98 01       	movw	r18, r16
    2c90:	0e 94 eb 15 	call	0x2bd6	; 0x2bd6 <_ZN7TwoWire11requestFromEhhmhh>
    2c94:	1f 91       	pop	r17
    2c96:	0f 91       	pop	r16
    2c98:	ef 90       	pop	r14
    2c9a:	cf 90       	pop	r12
    2c9c:	08 95       	ret

00002c9e <_ZN7TwoWire11requestFromEhh>:
    2c9e:	21 e0       	ldi	r18, 0x01	; 1
    2ca0:	0c 94 3f 16 	jmp	0x2c7e	; 0x2c7e <_ZN7TwoWire11requestFromEhhh>

00002ca4 <_ZN7TwoWire11requestFromEii>:
    2ca4:	21 e0       	ldi	r18, 0x01	; 1
    2ca6:	0c 94 3f 16 	jmp	0x2c7e	; 0x2c7e <_ZN7TwoWire11requestFromEhhh>

00002caa <_ZN7TwoWire15endTransmissionEv>:
    2caa:	61 e0       	ldi	r22, 0x01	; 1
    2cac:	0c 94 d8 15 	jmp	0x2bb0	; 0x2bb0 <_ZN7TwoWire15endTransmissionEh>

00002cb0 <_GLOBAL__sub_I__ZN7TwoWire8rxBufferE>:
}

// Preinstantiate Objects //////////////////////////////////////////////////////

TwoWire Wire = TwoWire();
    2cb0:	8e ea       	ldi	r24, 0xAE	; 174
    2cb2:	93 e0       	ldi	r25, 0x03	; 3
    2cb4:	0c 94 b2 15 	jmp	0x2b64	; 0x2b64 <_ZN7TwoWireC1Ev>

00002cb8 <yield>:
 * libraries or sketches that supports cooperative threads.
 *
 * Its defined as a weak symbol and it can be redefined to implement a
 * real cooperative scheduler.
 */
static void __empty() {
    2cb8:	08 95       	ret

00002cba <_ZdlPv>:
void *operator new[](size_t size) {
  return malloc(size);
}

void operator delete(void * ptr) {
  free(ptr);
    2cba:	0c 94 5b 19 	jmp	0x32b6	; 0x32b6 <free>

00002cbe <twi_init>:
{
  // transmit master read ready signal, with or without ack
  if(ack){
    TWCR = _BV(TWEN) | _BV(TWIE) | _BV(TWINT) | _BV(TWEA);
  }else{
	  TWCR = _BV(TWEN) | _BV(TWIE) | _BV(TWINT);
    2cbe:	10 92 6d 04 	sts	0x046D, r1	; 0x80046d <twi_state>
    2cc2:	81 e0       	ldi	r24, 0x01	; 1
    2cc4:	80 93 6b 04 	sts	0x046B, r24	; 0x80046b <twi_sendStop>
    2cc8:	10 92 6a 04 	sts	0x046A, r1	; 0x80046a <twi_inRepStart>
    2ccc:	61 e0       	ldi	r22, 0x01	; 1
    2cce:	82 e1       	ldi	r24, 0x12	; 18
    2cd0:	0e 94 5c 11 	call	0x22b8	; 0x22b8 <digitalWrite>
    2cd4:	61 e0       	ldi	r22, 0x01	; 1
    2cd6:	83 e1       	ldi	r24, 0x13	; 19
    2cd8:	0e 94 5c 11 	call	0x22b8	; 0x22b8 <digitalWrite>
    2cdc:	e9 eb       	ldi	r30, 0xB9	; 185
    2cde:	f0 e0       	ldi	r31, 0x00	; 0
    2ce0:	80 81       	ld	r24, Z
    2ce2:	8e 7f       	andi	r24, 0xFE	; 254
    2ce4:	80 83       	st	Z, r24
    2ce6:	80 81       	ld	r24, Z
    2ce8:	8d 7f       	andi	r24, 0xFD	; 253
    2cea:	80 83       	st	Z, r24
    2cec:	88 e4       	ldi	r24, 0x48	; 72
    2cee:	80 93 b8 00 	sts	0x00B8, r24	; 0x8000b8 <__TEXT_REGION_LENGTH__+0x7e00b8>
    2cf2:	85 e4       	ldi	r24, 0x45	; 69
    2cf4:	80 93 bc 00 	sts	0x00BC, r24	; 0x8000bc <__TEXT_REGION_LENGTH__+0x7e00bc>
    2cf8:	08 95       	ret

00002cfa <twi_readFrom>:
    2cfa:	41 32       	cpi	r20, 0x21	; 33
    2cfc:	08 f0       	brcs	.+2      	; 0x2d00 <twi_readFrom+0x6>
    2cfe:	43 c0       	rjmp	.+134    	; 0x2d86 <twi_readFrom+0x8c>
    2d00:	90 91 6d 04 	lds	r25, 0x046D	; 0x80046d <twi_state>
    2d04:	91 11       	cpse	r25, r1
    2d06:	fc cf       	rjmp	.-8      	; 0x2d00 <twi_readFrom+0x6>
    2d08:	91 e0       	ldi	r25, 0x01	; 1
    2d0a:	90 93 6d 04 	sts	0x046D, r25	; 0x80046d <twi_state>
    2d0e:	20 93 6b 04 	sts	0x046B, r18	; 0x80046b <twi_sendStop>
    2d12:	2f ef       	ldi	r18, 0xFF	; 255
    2d14:	20 93 00 04 	sts	0x0400, r18	; 0x800400 <twi_error>
    2d18:	10 92 45 04 	sts	0x0445, r1	; 0x800445 <twi_masterBufferIndex>
    2d1c:	24 0f       	add	r18, r20
    2d1e:	20 93 44 04 	sts	0x0444, r18	; 0x800444 <twi_masterBufferLength>
    2d22:	90 93 6c 04 	sts	0x046C, r25	; 0x80046c <twi_slarw>
    2d26:	90 91 6c 04 	lds	r25, 0x046C	; 0x80046c <twi_slarw>
    2d2a:	88 0f       	add	r24, r24
    2d2c:	89 2b       	or	r24, r25
    2d2e:	80 93 6c 04 	sts	0x046C, r24	; 0x80046c <twi_slarw>
    2d32:	80 91 6a 04 	lds	r24, 0x046A	; 0x80046a <twi_inRepStart>
    2d36:	81 30       	cpi	r24, 0x01	; 1
    2d38:	61 f4       	brne	.+24     	; 0x2d52 <twi_readFrom+0x58>
    2d3a:	10 92 6a 04 	sts	0x046A, r1	; 0x80046a <twi_inRepStart>
    2d3e:	80 91 6c 04 	lds	r24, 0x046C	; 0x80046c <twi_slarw>
    2d42:	80 93 bb 00 	sts	0x00BB, r24	; 0x8000bb <__TEXT_REGION_LENGTH__+0x7e00bb>
    2d46:	80 91 bc 00 	lds	r24, 0x00BC	; 0x8000bc <__TEXT_REGION_LENGTH__+0x7e00bc>
    2d4a:	83 fd       	sbrc	r24, 3
    2d4c:	f8 cf       	rjmp	.-16     	; 0x2d3e <twi_readFrom+0x44>
    2d4e:	85 ec       	ldi	r24, 0xC5	; 197
    2d50:	01 c0       	rjmp	.+2      	; 0x2d54 <twi_readFrom+0x5a>
    2d52:	85 ee       	ldi	r24, 0xE5	; 229
    2d54:	80 93 bc 00 	sts	0x00BC, r24	; 0x8000bc <__TEXT_REGION_LENGTH__+0x7e00bc>
    2d58:	80 91 6d 04 	lds	r24, 0x046D	; 0x80046d <twi_state>
    2d5c:	81 30       	cpi	r24, 0x01	; 1
    2d5e:	e1 f3       	breq	.-8      	; 0x2d58 <twi_readFrom+0x5e>
    2d60:	80 91 45 04 	lds	r24, 0x0445	; 0x800445 <twi_masterBufferIndex>
    2d64:	84 17       	cp	r24, r20
    2d66:	10 f4       	brcc	.+4      	; 0x2d6c <twi_readFrom+0x72>
    2d68:	40 91 45 04 	lds	r20, 0x0445	; 0x800445 <twi_masterBufferIndex>
    2d6c:	26 e4       	ldi	r18, 0x46	; 70
    2d6e:	34 e0       	ldi	r19, 0x04	; 4
    2d70:	fb 01       	movw	r30, r22
    2d72:	d9 01       	movw	r26, r18
    2d74:	8a 2f       	mov	r24, r26
    2d76:	82 1b       	sub	r24, r18
    2d78:	84 17       	cp	r24, r20
    2d7a:	18 f4       	brcc	.+6      	; 0x2d82 <twi_readFrom+0x88>
    2d7c:	8d 91       	ld	r24, X+
    2d7e:	81 93       	st	Z+, r24
    2d80:	f9 cf       	rjmp	.-14     	; 0x2d74 <twi_readFrom+0x7a>
    2d82:	84 2f       	mov	r24, r20
    2d84:	08 95       	ret
    2d86:	80 e0       	ldi	r24, 0x00	; 0
    2d88:	08 95       	ret

00002d8a <twi_writeTo>:
    2d8a:	0f 93       	push	r16
    2d8c:	41 32       	cpi	r20, 0x21	; 33
    2d8e:	08 f0       	brcs	.+2      	; 0x2d92 <twi_writeTo+0x8>
    2d90:	4a c0       	rjmp	.+148    	; 0x2e26 <twi_writeTo+0x9c>
    2d92:	90 91 6d 04 	lds	r25, 0x046D	; 0x80046d <twi_state>
    2d96:	91 11       	cpse	r25, r1
    2d98:	fc cf       	rjmp	.-8      	; 0x2d92 <twi_writeTo+0x8>
    2d9a:	32 e0       	ldi	r19, 0x02	; 2
    2d9c:	30 93 6d 04 	sts	0x046D, r19	; 0x80046d <twi_state>
    2da0:	00 93 6b 04 	sts	0x046B, r16	; 0x80046b <twi_sendStop>
    2da4:	3f ef       	ldi	r19, 0xFF	; 255
    2da6:	30 93 00 04 	sts	0x0400, r19	; 0x800400 <twi_error>
    2daa:	10 92 45 04 	sts	0x0445, r1	; 0x800445 <twi_masterBufferIndex>
    2dae:	40 93 44 04 	sts	0x0444, r20	; 0x800444 <twi_masterBufferLength>
    2db2:	fb 01       	movw	r30, r22
    2db4:	66 e4       	ldi	r22, 0x46	; 70
    2db6:	74 e0       	ldi	r23, 0x04	; 4
    2db8:	db 01       	movw	r26, r22
    2dba:	3a 2f       	mov	r19, r26
    2dbc:	36 1b       	sub	r19, r22
    2dbe:	34 17       	cp	r19, r20
    2dc0:	18 f4       	brcc	.+6      	; 0x2dc8 <twi_writeTo+0x3e>
    2dc2:	31 91       	ld	r19, Z+
    2dc4:	3d 93       	st	X+, r19
    2dc6:	f9 cf       	rjmp	.-14     	; 0x2dba <twi_writeTo+0x30>
    2dc8:	10 92 6c 04 	sts	0x046C, r1	; 0x80046c <twi_slarw>
    2dcc:	30 91 6c 04 	lds	r19, 0x046C	; 0x80046c <twi_slarw>
    2dd0:	88 0f       	add	r24, r24
    2dd2:	83 2b       	or	r24, r19
    2dd4:	80 93 6c 04 	sts	0x046C, r24	; 0x80046c <twi_slarw>
    2dd8:	80 91 6a 04 	lds	r24, 0x046A	; 0x80046a <twi_inRepStart>
    2ddc:	81 30       	cpi	r24, 0x01	; 1
    2dde:	61 f4       	brne	.+24     	; 0x2df8 <twi_writeTo+0x6e>
    2de0:	10 92 6a 04 	sts	0x046A, r1	; 0x80046a <twi_inRepStart>
    2de4:	80 91 6c 04 	lds	r24, 0x046C	; 0x80046c <twi_slarw>
    2de8:	80 93 bb 00 	sts	0x00BB, r24	; 0x8000bb <__TEXT_REGION_LENGTH__+0x7e00bb>
    2dec:	80 91 bc 00 	lds	r24, 0x00BC	; 0x8000bc <__TEXT_REGION_LENGTH__+0x7e00bc>
    2df0:	83 fd       	sbrc	r24, 3
    2df2:	f8 cf       	rjmp	.-16     	; 0x2de4 <twi_writeTo+0x5a>
    2df4:	85 ec       	ldi	r24, 0xC5	; 197
    2df6:	01 c0       	rjmp	.+2      	; 0x2dfa <twi_writeTo+0x70>
    2df8:	85 ee       	ldi	r24, 0xE5	; 229
    2dfa:	80 93 bc 00 	sts	0x00BC, r24	; 0x8000bc <__TEXT_REGION_LENGTH__+0x7e00bc>
    2dfe:	22 23       	and	r18, r18
    2e00:	21 f0       	breq	.+8      	; 0x2e0a <twi_writeTo+0x80>
    2e02:	80 91 6d 04 	lds	r24, 0x046D	; 0x80046d <twi_state>
    2e06:	82 30       	cpi	r24, 0x02	; 2
    2e08:	d1 f3       	breq	.-12     	; 0x2dfe <twi_writeTo+0x74>
    2e0a:	80 91 00 04 	lds	r24, 0x0400	; 0x800400 <twi_error>
    2e0e:	8f 3f       	cpi	r24, 0xFF	; 255
    2e10:	79 f0       	breq	.+30     	; 0x2e30 <twi_writeTo+0xa6>
    2e12:	80 91 00 04 	lds	r24, 0x0400	; 0x800400 <twi_error>
    2e16:	80 32       	cpi	r24, 0x20	; 32
    2e18:	41 f0       	breq	.+16     	; 0x2e2a <twi_writeTo+0xa0>
    2e1a:	80 91 00 04 	lds	r24, 0x0400	; 0x800400 <twi_error>
    2e1e:	80 33       	cpi	r24, 0x30	; 48
    2e20:	31 f0       	breq	.+12     	; 0x2e2e <twi_writeTo+0xa4>
    2e22:	94 e0       	ldi	r25, 0x04	; 4
    2e24:	05 c0       	rjmp	.+10     	; 0x2e30 <twi_writeTo+0xa6>
    2e26:	91 e0       	ldi	r25, 0x01	; 1
    2e28:	03 c0       	rjmp	.+6      	; 0x2e30 <twi_writeTo+0xa6>
    2e2a:	92 e0       	ldi	r25, 0x02	; 2
    2e2c:	01 c0       	rjmp	.+2      	; 0x2e30 <twi_writeTo+0xa6>
    2e2e:	93 e0       	ldi	r25, 0x03	; 3
    2e30:	89 2f       	mov	r24, r25
    2e32:	0f 91       	pop	r16
    2e34:	08 95       	ret

00002e36 <twi_transmit>:
    2e36:	61 32       	cpi	r22, 0x21	; 33
    2e38:	98 f4       	brcc	.+38     	; 0x2e60 <twi_transmit+0x2a>
    2e3a:	20 91 6d 04 	lds	r18, 0x046D	; 0x80046d <twi_state>
    2e3e:	24 30       	cpi	r18, 0x04	; 4
    2e40:	89 f4       	brne	.+34     	; 0x2e64 <twi_transmit+0x2e>
    2e42:	60 93 22 04 	sts	0x0422, r22	; 0x800422 <twi_txBufferLength>
    2e46:	fc 01       	movw	r30, r24
    2e48:	24 e2       	ldi	r18, 0x24	; 36
    2e4a:	34 e0       	ldi	r19, 0x04	; 4
    2e4c:	d9 01       	movw	r26, r18
    2e4e:	8a 2f       	mov	r24, r26
    2e50:	82 1b       	sub	r24, r18
    2e52:	86 17       	cp	r24, r22
    2e54:	18 f4       	brcc	.+6      	; 0x2e5c <twi_transmit+0x26>
    2e56:	81 91       	ld	r24, Z+
    2e58:	8d 93       	st	X+, r24
    2e5a:	f9 cf       	rjmp	.-14     	; 0x2e4e <twi_transmit+0x18>
    2e5c:	80 e0       	ldi	r24, 0x00	; 0
    2e5e:	08 95       	ret
    2e60:	81 e0       	ldi	r24, 0x01	; 1
    2e62:	08 95       	ret
    2e64:	82 e0       	ldi	r24, 0x02	; 2
    2e66:	08 95       	ret

00002e68 <twi_stop>:
 * Output   none
 */
void twi_stop(void)
{
  // send stop condition
  TWCR = _BV(TWEN) | _BV(TWIE) | _BV(TWEA) | _BV(TWINT) | _BV(TWSTO);
    2e68:	85 ed       	ldi	r24, 0xD5	; 213
    2e6a:	80 93 bc 00 	sts	0x00BC, r24	; 0x8000bc <__TEXT_REGION_LENGTH__+0x7e00bc>

  // wait for stop condition to be exectued on bus
  // TWINT is not set after a stop condition!
  while(TWCR & _BV(TWSTO)){
    2e6e:	80 91 bc 00 	lds	r24, 0x00BC	; 0x8000bc <__TEXT_REGION_LENGTH__+0x7e00bc>
    2e72:	84 fd       	sbrc	r24, 4
    2e74:	fc cf       	rjmp	.-8      	; 0x2e6e <twi_stop+0x6>
    continue;
  }

  // update twi state
  twi_state = TWI_READY;
    2e76:	10 92 6d 04 	sts	0x046D, r1	; 0x80046d <twi_state>
    2e7a:	08 95       	ret

00002e7c <twi_releaseBus>:
 * Output   none
 */
void twi_releaseBus(void)
{
  // release bus
  TWCR = _BV(TWEN) | _BV(TWIE) | _BV(TWEA) | _BV(TWINT);
    2e7c:	85 ec       	ldi	r24, 0xC5	; 197
    2e7e:	80 93 bc 00 	sts	0x00BC, r24	; 0x8000bc <__TEXT_REGION_LENGTH__+0x7e00bc>

  // update twi state
  twi_state = TWI_READY;
    2e82:	10 92 6d 04 	sts	0x046D, r1	; 0x80046d <twi_state>
    2e86:	08 95       	ret

00002e88 <__vector_24>:
}

ISR(TWI_vect)
{
    2e88:	1f 92       	push	r1
    2e8a:	0f 92       	push	r0
    2e8c:	0f b6       	in	r0, 0x3f	; 63
    2e8e:	0f 92       	push	r0
    2e90:	11 24       	eor	r1, r1
    2e92:	2f 93       	push	r18
    2e94:	3f 93       	push	r19
    2e96:	4f 93       	push	r20
    2e98:	5f 93       	push	r21
    2e9a:	6f 93       	push	r22
    2e9c:	7f 93       	push	r23
    2e9e:	8f 93       	push	r24
    2ea0:	9f 93       	push	r25
    2ea2:	af 93       	push	r26
    2ea4:	bf 93       	push	r27
    2ea6:	ef 93       	push	r30
    2ea8:	ff 93       	push	r31
  switch(TW_STATUS){
    2eaa:	80 91 b9 00 	lds	r24, 0x00B9	; 0x8000b9 <__TEXT_REGION_LENGTH__+0x7e00b9>
    2eae:	88 7f       	andi	r24, 0xF8	; 248
    2eb0:	80 36       	cpi	r24, 0x60	; 96
    2eb2:	09 f4       	brne	.+2      	; 0x2eb6 <__vector_24+0x2e>
    2eb4:	9e c0       	rjmp	.+316    	; 0x2ff2 <__vector_24+0x16a>
    2eb6:	78 f5       	brcc	.+94     	; 0x2f16 <__vector_24+0x8e>
    2eb8:	88 32       	cpi	r24, 0x28	; 40
    2eba:	09 f4       	brne	.+2      	; 0x2ebe <__vector_24+0x36>
    2ebc:	5d c0       	rjmp	.+186    	; 0x2f78 <__vector_24+0xf0>
    2ebe:	90 f4       	brcc	.+36     	; 0x2ee4 <__vector_24+0x5c>
    2ec0:	80 31       	cpi	r24, 0x10	; 16
    2ec2:	09 f4       	brne	.+2      	; 0x2ec6 <__vector_24+0x3e>
    2ec4:	56 c0       	rjmp	.+172    	; 0x2f72 <__vector_24+0xea>
    2ec6:	38 f4       	brcc	.+14     	; 0x2ed6 <__vector_24+0x4e>
    2ec8:	88 23       	and	r24, r24
    2eca:	09 f4       	brne	.+2      	; 0x2ece <__vector_24+0x46>
    2ecc:	f5 c0       	rjmp	.+490    	; 0x30b8 <__vector_24+0x230>
    2ece:	88 30       	cpi	r24, 0x08	; 8
    2ed0:	09 f4       	brne	.+2      	; 0x2ed4 <__vector_24+0x4c>
    2ed2:	4f c0       	rjmp	.+158    	; 0x2f72 <__vector_24+0xea>
    2ed4:	f5 c0       	rjmp	.+490    	; 0x30c0 <__vector_24+0x238>
    2ed6:	88 31       	cpi	r24, 0x18	; 24
    2ed8:	09 f4       	brne	.+2      	; 0x2edc <__vector_24+0x54>
    2eda:	4e c0       	rjmp	.+156    	; 0x2f78 <__vector_24+0xf0>
    2edc:	80 32       	cpi	r24, 0x20	; 32
    2ede:	09 f4       	brne	.+2      	; 0x2ee2 <__vector_24+0x5a>
    2ee0:	5f c0       	rjmp	.+190    	; 0x2fa0 <__vector_24+0x118>
    2ee2:	ee c0       	rjmp	.+476    	; 0x30c0 <__vector_24+0x238>
    2ee4:	80 34       	cpi	r24, 0x40	; 64
    2ee6:	09 f4       	brne	.+2      	; 0x2eea <__vector_24+0x62>
    2ee8:	6a c0       	rjmp	.+212    	; 0x2fbe <__vector_24+0x136>
    2eea:	58 f4       	brcc	.+22     	; 0x2f02 <__vector_24+0x7a>
    2eec:	80 33       	cpi	r24, 0x30	; 48
    2eee:	09 f4       	brne	.+2      	; 0x2ef2 <__vector_24+0x6a>
    2ef0:	57 c0       	rjmp	.+174    	; 0x2fa0 <__vector_24+0x118>
    2ef2:	88 33       	cpi	r24, 0x38	; 56
    2ef4:	09 f0       	breq	.+2      	; 0x2ef8 <__vector_24+0x70>
    2ef6:	e4 c0       	rjmp	.+456    	; 0x30c0 <__vector_24+0x238>
    case TW_MT_DATA_NACK: // data sent, nack received
      twi_error = TW_MT_DATA_NACK;
      twi_stop();
      break;
    case TW_MT_ARB_LOST: // lost bus arbitration
      twi_error = TW_MT_ARB_LOST;
    2ef8:	80 93 00 04 	sts	0x0400, r24	; 0x800400 <twi_error>
      twi_releaseBus();
    2efc:	0e 94 3e 17 	call	0x2e7c	; 0x2e7c <twi_releaseBus>
      break;
    2f00:	df c0       	rjmp	.+446    	; 0x30c0 <__vector_24+0x238>
  twi_state = TWI_READY;
}

ISR(TWI_vect)
{
  switch(TW_STATUS){
    2f02:	80 35       	cpi	r24, 0x50	; 80
    2f04:	09 f4       	brne	.+2      	; 0x2f08 <__vector_24+0x80>
    2f06:	4f c0       	rjmp	.+158    	; 0x2fa6 <__vector_24+0x11e>
    2f08:	88 35       	cpi	r24, 0x58	; 88
    2f0a:	09 f4       	brne	.+2      	; 0x2f0e <__vector_24+0x86>
    2f0c:	5d c0       	rjmp	.+186    	; 0x2fc8 <__vector_24+0x140>
    2f0e:	88 34       	cpi	r24, 0x48	; 72
    2f10:	09 f0       	breq	.+2      	; 0x2f14 <__vector_24+0x8c>
    2f12:	d6 c0       	rjmp	.+428    	; 0x30c0 <__vector_24+0x238>
    2f14:	d3 c0       	rjmp	.+422    	; 0x30bc <__vector_24+0x234>
    2f16:	88 39       	cpi	r24, 0x98	; 152
    2f18:	09 f4       	brne	.+2      	; 0x2f1c <__vector_24+0x94>
    2f1a:	c4 c0       	rjmp	.+392    	; 0x30a4 <__vector_24+0x21c>
    2f1c:	a8 f4       	brcc	.+42     	; 0x2f48 <__vector_24+0xc0>
    2f1e:	88 37       	cpi	r24, 0x78	; 120
    2f20:	09 f4       	brne	.+2      	; 0x2f24 <__vector_24+0x9c>
    2f22:	67 c0       	rjmp	.+206    	; 0x2ff2 <__vector_24+0x16a>
    2f24:	38 f4       	brcc	.+14     	; 0x2f34 <__vector_24+0xac>
    2f26:	88 36       	cpi	r24, 0x68	; 104
    2f28:	09 f4       	brne	.+2      	; 0x2f2c <__vector_24+0xa4>
    2f2a:	63 c0       	rjmp	.+198    	; 0x2ff2 <__vector_24+0x16a>
    2f2c:	80 37       	cpi	r24, 0x70	; 112
    2f2e:	09 f4       	brne	.+2      	; 0x2f32 <__vector_24+0xaa>
    2f30:	60 c0       	rjmp	.+192    	; 0x2ff2 <__vector_24+0x16a>
    2f32:	c6 c0       	rjmp	.+396    	; 0x30c0 <__vector_24+0x238>
    2f34:	88 38       	cpi	r24, 0x88	; 136
    2f36:	09 f4       	brne	.+2      	; 0x2f3a <__vector_24+0xb2>
    2f38:	b5 c0       	rjmp	.+362    	; 0x30a4 <__vector_24+0x21c>
    2f3a:	80 39       	cpi	r24, 0x90	; 144
    2f3c:	09 f4       	brne	.+2      	; 0x2f40 <__vector_24+0xb8>
    2f3e:	5f c0       	rjmp	.+190    	; 0x2ffe <__vector_24+0x176>
    2f40:	80 38       	cpi	r24, 0x80	; 128
    2f42:	09 f0       	breq	.+2      	; 0x2f46 <__vector_24+0xbe>
    2f44:	bd c0       	rjmp	.+378    	; 0x30c0 <__vector_24+0x238>
    2f46:	5b c0       	rjmp	.+182    	; 0x2ffe <__vector_24+0x176>
    2f48:	80 3b       	cpi	r24, 0xB0	; 176
    2f4a:	09 f4       	brne	.+2      	; 0x2f4e <__vector_24+0xc6>
    2f4c:	83 c0       	rjmp	.+262    	; 0x3054 <__vector_24+0x1cc>
    2f4e:	38 f4       	brcc	.+14     	; 0x2f5e <__vector_24+0xd6>
    2f50:	80 3a       	cpi	r24, 0xA0	; 160
    2f52:	09 f4       	brne	.+2      	; 0x2f56 <__vector_24+0xce>
    2f54:	66 c0       	rjmp	.+204    	; 0x3022 <__vector_24+0x19a>
    2f56:	88 3a       	cpi	r24, 0xA8	; 168
    2f58:	09 f4       	brne	.+2      	; 0x2f5c <__vector_24+0xd4>
    2f5a:	7c c0       	rjmp	.+248    	; 0x3054 <__vector_24+0x1cc>
    2f5c:	b1 c0       	rjmp	.+354    	; 0x30c0 <__vector_24+0x238>
    2f5e:	80 3c       	cpi	r24, 0xC0	; 192
    2f60:	09 f4       	brne	.+2      	; 0x2f64 <__vector_24+0xdc>
    2f62:	a4 c0       	rjmp	.+328    	; 0x30ac <__vector_24+0x224>
    2f64:	88 3c       	cpi	r24, 0xC8	; 200
    2f66:	09 f4       	brne	.+2      	; 0x2f6a <__vector_24+0xe2>
    2f68:	a1 c0       	rjmp	.+322    	; 0x30ac <__vector_24+0x224>
    2f6a:	88 3b       	cpi	r24, 0xB8	; 184
    2f6c:	09 f4       	brne	.+2      	; 0x2f70 <__vector_24+0xe8>
    2f6e:	87 c0       	rjmp	.+270    	; 0x307e <__vector_24+0x1f6>
    2f70:	a7 c0       	rjmp	.+334    	; 0x30c0 <__vector_24+0x238>
    // All Master
    case TW_START:     // sent start condition
    case TW_REP_START: // sent repeated start condition
      // copy device address and r/w bit to output register and ack
      TWDR = twi_slarw;
    2f72:	80 91 6c 04 	lds	r24, 0x046C	; 0x80046c <twi_slarw>
    2f76:	10 c0       	rjmp	.+32     	; 0x2f98 <__vector_24+0x110>

    // Master Transmitter
    case TW_MT_SLA_ACK:  // slave receiver acked address
    case TW_MT_DATA_ACK: // slave receiver acked data
      // if there is data to send, send it, otherwise stop 
      if(twi_masterBufferIndex < twi_masterBufferLength){
    2f78:	90 91 45 04 	lds	r25, 0x0445	; 0x800445 <twi_masterBufferIndex>
    2f7c:	80 91 44 04 	lds	r24, 0x0444	; 0x800444 <twi_masterBufferLength>
    2f80:	98 17       	cp	r25, r24
    2f82:	70 f5       	brcc	.+92     	; 0x2fe0 <__vector_24+0x158>
        // copy data to output register and ack
        TWDR = twi_masterBuffer[twi_masterBufferIndex++];
    2f84:	e0 91 45 04 	lds	r30, 0x0445	; 0x800445 <twi_masterBufferIndex>
    2f88:	81 e0       	ldi	r24, 0x01	; 1
    2f8a:	8e 0f       	add	r24, r30
    2f8c:	80 93 45 04 	sts	0x0445, r24	; 0x800445 <twi_masterBufferIndex>
    2f90:	f0 e0       	ldi	r31, 0x00	; 0
    2f92:	ea 5b       	subi	r30, 0xBA	; 186
    2f94:	fb 4f       	sbci	r31, 0xFB	; 251
    2f96:	80 81       	ld	r24, Z
    2f98:	80 93 bb 00 	sts	0x00BB, r24	; 0x8000bb <__TEXT_REGION_LENGTH__+0x7e00bb>
 */
void twi_reply(uint8_t ack)
{
  // transmit master read ready signal, with or without ack
  if(ack){
    TWCR = _BV(TWEN) | _BV(TWIE) | _BV(TWINT) | _BV(TWEA);
    2f9c:	85 ec       	ldi	r24, 0xC5	; 197
    2f9e:	83 c0       	rjmp	.+262    	; 0x30a6 <__vector_24+0x21e>
    case TW_MT_SLA_NACK:  // address sent, nack received
      twi_error = TW_MT_SLA_NACK;
      twi_stop();
      break;
    case TW_MT_DATA_NACK: // data sent, nack received
      twi_error = TW_MT_DATA_NACK;
    2fa0:	80 93 00 04 	sts	0x0400, r24	; 0x800400 <twi_error>
    2fa4:	8b c0       	rjmp	.+278    	; 0x30bc <__vector_24+0x234>
      break;

    // Master Receiver
    case TW_MR_DATA_ACK: // data received, ack sent
      // put byte into buffer
      twi_masterBuffer[twi_masterBufferIndex++] = TWDR;
    2fa6:	e0 91 45 04 	lds	r30, 0x0445	; 0x800445 <twi_masterBufferIndex>
    2faa:	81 e0       	ldi	r24, 0x01	; 1
    2fac:	8e 0f       	add	r24, r30
    2fae:	80 93 45 04 	sts	0x0445, r24	; 0x800445 <twi_masterBufferIndex>
    2fb2:	80 91 bb 00 	lds	r24, 0x00BB	; 0x8000bb <__TEXT_REGION_LENGTH__+0x7e00bb>
    2fb6:	f0 e0       	ldi	r31, 0x00	; 0
    2fb8:	ea 5b       	subi	r30, 0xBA	; 186
    2fba:	fb 4f       	sbci	r31, 0xFB	; 251
    2fbc:	80 83       	st	Z, r24
    case TW_MR_SLA_ACK:  // address sent, ack received
      // ack if more bytes are expected, otherwise nack
      if(twi_masterBufferIndex < twi_masterBufferLength){
    2fbe:	90 91 45 04 	lds	r25, 0x0445	; 0x800445 <twi_masterBufferIndex>
    2fc2:	80 91 44 04 	lds	r24, 0x0444	; 0x800444 <twi_masterBufferLength>
    2fc6:	6b c0       	rjmp	.+214    	; 0x309e <__vector_24+0x216>
        twi_reply(0);
      }
      break;
    case TW_MR_DATA_NACK: // data received, nack sent
      // put final byte into buffer
      twi_masterBuffer[twi_masterBufferIndex++] = TWDR;
    2fc8:	e0 91 45 04 	lds	r30, 0x0445	; 0x800445 <twi_masterBufferIndex>
    2fcc:	81 e0       	ldi	r24, 0x01	; 1
    2fce:	8e 0f       	add	r24, r30
    2fd0:	80 93 45 04 	sts	0x0445, r24	; 0x800445 <twi_masterBufferIndex>
    2fd4:	80 91 bb 00 	lds	r24, 0x00BB	; 0x8000bb <__TEXT_REGION_LENGTH__+0x7e00bb>
    2fd8:	f0 e0       	ldi	r31, 0x00	; 0
    2fda:	ea 5b       	subi	r30, 0xBA	; 186
    2fdc:	fb 4f       	sbci	r31, 0xFB	; 251
    2fde:	80 83       	st	Z, r24
	if (twi_sendStop)
    2fe0:	80 91 6b 04 	lds	r24, 0x046B	; 0x80046b <twi_sendStop>
    2fe4:	81 11       	cpse	r24, r1
    2fe6:	6a c0       	rjmp	.+212    	; 0x30bc <__vector_24+0x234>
          twi_stop();
	else {
	  twi_inRepStart = true;	// we're gonna send the START
    2fe8:	81 e0       	ldi	r24, 0x01	; 1
    2fea:	80 93 6a 04 	sts	0x046A, r24	; 0x80046a <twi_inRepStart>
	  // don't enable the interrupt. We'll generate the start, but we 
	  // avoid handling the interrupt until we're in the next transaction,
	  // at the point where we would normally issue the start.
	  TWCR = _BV(TWINT) | _BV(TWSTA)| _BV(TWEN) ;
    2fee:	84 ea       	ldi	r24, 0xA4	; 164
    2ff0:	5e c0       	rjmp	.+188    	; 0x30ae <__vector_24+0x226>
    case TW_SR_SLA_ACK:   // addressed, returned ack
    case TW_SR_GCALL_ACK: // addressed generally, returned ack
    case TW_SR_ARB_LOST_SLA_ACK:   // lost arbitration, returned ack
    case TW_SR_ARB_LOST_GCALL_ACK: // lost arbitration, returned ack
      // enter slave receiver mode
      twi_state = TWI_SRX;
    2ff2:	83 e0       	ldi	r24, 0x03	; 3
    2ff4:	80 93 6d 04 	sts	0x046D, r24	; 0x80046d <twi_state>
      // indicate that rx buffer can be overwritten and ack
      twi_rxBufferIndex = 0;
    2ff8:	10 92 01 04 	sts	0x0401, r1	; 0x800401 <twi_rxBufferIndex>
    2ffc:	cf cf       	rjmp	.-98     	; 0x2f9c <__vector_24+0x114>
      twi_reply(1);
      break;
    case TW_SR_DATA_ACK:       // data received, returned ack
    case TW_SR_GCALL_DATA_ACK: // data received generally, returned ack
      // if there is still room in the rx buffer
      if(twi_rxBufferIndex < TWI_BUFFER_LENGTH){
    2ffe:	80 91 01 04 	lds	r24, 0x0401	; 0x800401 <twi_rxBufferIndex>
    3002:	80 32       	cpi	r24, 0x20	; 32
    3004:	08 f0       	brcs	.+2      	; 0x3008 <__vector_24+0x180>
    3006:	4e c0       	rjmp	.+156    	; 0x30a4 <__vector_24+0x21c>
        // put byte in buffer and ack
        twi_rxBuffer[twi_rxBufferIndex++] = TWDR;
    3008:	e0 91 01 04 	lds	r30, 0x0401	; 0x800401 <twi_rxBufferIndex>
    300c:	81 e0       	ldi	r24, 0x01	; 1
    300e:	8e 0f       	add	r24, r30
    3010:	80 93 01 04 	sts	0x0401, r24	; 0x800401 <twi_rxBufferIndex>
    3014:	80 91 bb 00 	lds	r24, 0x00BB	; 0x8000bb <__TEXT_REGION_LENGTH__+0x7e00bb>
    3018:	f0 e0       	ldi	r31, 0x00	; 0
    301a:	ee 5f       	subi	r30, 0xFE	; 254
    301c:	fb 4f       	sbci	r31, 0xFB	; 251
    301e:	80 83       	st	Z, r24
    3020:	bd cf       	rjmp	.-134    	; 0x2f9c <__vector_24+0x114>
        twi_reply(0);
      }
      break;
    case TW_SR_STOP: // stop or repeated start condition received
      // ack future responses and leave slave receiver state
      twi_releaseBus();
    3022:	0e 94 3e 17 	call	0x2e7c	; 0x2e7c <twi_releaseBus>
      // put a null char after data if there's room
      if(twi_rxBufferIndex < TWI_BUFFER_LENGTH){
    3026:	80 91 01 04 	lds	r24, 0x0401	; 0x800401 <twi_rxBufferIndex>
    302a:	80 32       	cpi	r24, 0x20	; 32
    302c:	30 f4       	brcc	.+12     	; 0x303a <__vector_24+0x1b2>
        twi_rxBuffer[twi_rxBufferIndex] = '\0';
    302e:	e0 91 01 04 	lds	r30, 0x0401	; 0x800401 <twi_rxBufferIndex>
    3032:	f0 e0       	ldi	r31, 0x00	; 0
    3034:	ee 5f       	subi	r30, 0xFE	; 254
    3036:	fb 4f       	sbci	r31, 0xFB	; 251
    3038:	10 82       	st	Z, r1
      }
      // callback to user defined callback
      twi_onSlaveReceive(twi_rxBuffer, twi_rxBufferIndex);
    303a:	60 91 01 04 	lds	r22, 0x0401	; 0x800401 <twi_rxBufferIndex>
    303e:	70 e0       	ldi	r23, 0x00	; 0
    3040:	e0 91 66 04 	lds	r30, 0x0466	; 0x800466 <twi_onSlaveReceive>
    3044:	f0 91 67 04 	lds	r31, 0x0467	; 0x800467 <twi_onSlaveReceive+0x1>
    3048:	82 e0       	ldi	r24, 0x02	; 2
    304a:	94 e0       	ldi	r25, 0x04	; 4
    304c:	09 95       	icall
      // since we submit rx buffer to "wire" library, we can reset it
      twi_rxBufferIndex = 0;
    304e:	10 92 01 04 	sts	0x0401, r1	; 0x800401 <twi_rxBufferIndex>
      break;
    3052:	36 c0       	rjmp	.+108    	; 0x30c0 <__vector_24+0x238>
    
    // Slave Transmitter
    case TW_ST_SLA_ACK:          // addressed, returned ack
    case TW_ST_ARB_LOST_SLA_ACK: // arbitration lost, returned ack
      // enter slave transmitter mode
      twi_state = TWI_STX;
    3054:	84 e0       	ldi	r24, 0x04	; 4
    3056:	80 93 6d 04 	sts	0x046D, r24	; 0x80046d <twi_state>
      // ready the tx buffer index for iteration
      twi_txBufferIndex = 0;
    305a:	10 92 23 04 	sts	0x0423, r1	; 0x800423 <twi_txBufferIndex>
      // set tx buffer length to be zero, to verify if user changes it
      twi_txBufferLength = 0;
    305e:	10 92 22 04 	sts	0x0422, r1	; 0x800422 <twi_txBufferLength>
      // request for txBuffer to be filled and length to be set
      // note: user must call twi_transmit(bytes, length) to do this
      twi_onSlaveTransmit();
    3062:	e0 91 68 04 	lds	r30, 0x0468	; 0x800468 <twi_onSlaveTransmit>
    3066:	f0 91 69 04 	lds	r31, 0x0469	; 0x800469 <twi_onSlaveTransmit+0x1>
    306a:	09 95       	icall
      // if they didn't change buffer & length, initialize it
      if(0 == twi_txBufferLength){
    306c:	80 91 22 04 	lds	r24, 0x0422	; 0x800422 <twi_txBufferLength>
    3070:	81 11       	cpse	r24, r1
    3072:	05 c0       	rjmp	.+10     	; 0x307e <__vector_24+0x1f6>
        twi_txBufferLength = 1;
    3074:	81 e0       	ldi	r24, 0x01	; 1
    3076:	80 93 22 04 	sts	0x0422, r24	; 0x800422 <twi_txBufferLength>
        twi_txBuffer[0] = 0x00;
    307a:	10 92 24 04 	sts	0x0424, r1	; 0x800424 <twi_txBuffer>
      }
      // transmit first byte from buffer, fall
    case TW_ST_DATA_ACK: // byte sent, ack returned
      // copy data to output register
      TWDR = twi_txBuffer[twi_txBufferIndex++];
    307e:	e0 91 23 04 	lds	r30, 0x0423	; 0x800423 <twi_txBufferIndex>
    3082:	81 e0       	ldi	r24, 0x01	; 1
    3084:	8e 0f       	add	r24, r30
    3086:	80 93 23 04 	sts	0x0423, r24	; 0x800423 <twi_txBufferIndex>
    308a:	f0 e0       	ldi	r31, 0x00	; 0
    308c:	ec 5d       	subi	r30, 0xDC	; 220
    308e:	fb 4f       	sbci	r31, 0xFB	; 251
    3090:	80 81       	ld	r24, Z
    3092:	80 93 bb 00 	sts	0x00BB, r24	; 0x8000bb <__TEXT_REGION_LENGTH__+0x7e00bb>
      // if there is more to send, ack, otherwise nack
      if(twi_txBufferIndex < twi_txBufferLength){
    3096:	90 91 23 04 	lds	r25, 0x0423	; 0x800423 <twi_txBufferIndex>
    309a:	80 91 22 04 	lds	r24, 0x0422	; 0x800422 <twi_txBufferLength>
    309e:	98 17       	cp	r25, r24
    30a0:	08 f4       	brcc	.+2      	; 0x30a4 <__vector_24+0x21c>
    30a2:	7c cf       	rjmp	.-264    	; 0x2f9c <__vector_24+0x114>
{
  // transmit master read ready signal, with or without ack
  if(ack){
    TWCR = _BV(TWEN) | _BV(TWIE) | _BV(TWINT) | _BV(TWEA);
  }else{
	  TWCR = _BV(TWEN) | _BV(TWIE) | _BV(TWINT);
    30a4:	85 e8       	ldi	r24, 0x85	; 133
    30a6:	80 93 bc 00 	sts	0x00BC, r24	; 0x8000bc <__TEXT_REGION_LENGTH__+0x7e00bc>
    30aa:	0a c0       	rjmp	.+20     	; 0x30c0 <__vector_24+0x238>
 */
void twi_reply(uint8_t ack)
{
  // transmit master read ready signal, with or without ack
  if(ack){
    TWCR = _BV(TWEN) | _BV(TWIE) | _BV(TWINT) | _BV(TWEA);
    30ac:	85 ec       	ldi	r24, 0xC5	; 197
    30ae:	80 93 bc 00 	sts	0x00BC, r24	; 0x8000bc <__TEXT_REGION_LENGTH__+0x7e00bc>
    case TW_ST_DATA_NACK: // received nack, we are done 
    case TW_ST_LAST_DATA: // received ack, but we are done already!
      // ack future responses
      twi_reply(1);
      // leave slave receiver state
      twi_state = TWI_READY;
    30b2:	10 92 6d 04 	sts	0x046D, r1	; 0x80046d <twi_state>
      break;
    30b6:	04 c0       	rjmp	.+8      	; 0x30c0 <__vector_24+0x238>

    // All
    case TW_NO_INFO:   // no state information
      break;
    case TW_BUS_ERROR: // bus error, illegal stop/start
      twi_error = TW_BUS_ERROR;
    30b8:	10 92 00 04 	sts	0x0400, r1	; 0x800400 <twi_error>
      twi_stop();
    30bc:	0e 94 34 17 	call	0x2e68	; 0x2e68 <twi_stop>
      break;
  }
}
    30c0:	ff 91       	pop	r31
    30c2:	ef 91       	pop	r30
    30c4:	bf 91       	pop	r27
    30c6:	af 91       	pop	r26
    30c8:	9f 91       	pop	r25
    30ca:	8f 91       	pop	r24
    30cc:	7f 91       	pop	r23
    30ce:	6f 91       	pop	r22
    30d0:	5f 91       	pop	r21
    30d2:	4f 91       	pop	r20
    30d4:	3f 91       	pop	r19
    30d6:	2f 91       	pop	r18
    30d8:	0f 90       	pop	r0
    30da:	0f be       	out	0x3f, r0	; 63
    30dc:	0f 90       	pop	r0
    30de:	1f 90       	pop	r1
    30e0:	18 95       	reti

000030e2 <__unordsf2>:
    30e2:	0e 94 81 0a 	call	0x1502	; 0x1502 <__fp_cmp>
    30e6:	88 0b       	sbc	r24, r24
    30e8:	99 0b       	sbc	r25, r25
    30ea:	08 95       	ret

000030ec <__divmodhi4>:
    30ec:	97 fb       	bst	r25, 7
    30ee:	07 2e       	mov	r0, r23
    30f0:	16 f4       	brtc	.+4      	; 0x30f6 <__divmodhi4+0xa>
    30f2:	00 94       	com	r0
    30f4:	07 d0       	rcall	.+14     	; 0x3104 <__divmodhi4_neg1>
    30f6:	77 fd       	sbrc	r23, 7
    30f8:	09 d0       	rcall	.+18     	; 0x310c <__divmodhi4_neg2>
    30fa:	0e 94 ac 18 	call	0x3158	; 0x3158 <__udivmodhi4>
    30fe:	07 fc       	sbrc	r0, 7
    3100:	05 d0       	rcall	.+10     	; 0x310c <__divmodhi4_neg2>
    3102:	3e f4       	brtc	.+14     	; 0x3112 <__divmodhi4_exit>

00003104 <__divmodhi4_neg1>:
    3104:	90 95       	com	r25
    3106:	81 95       	neg	r24
    3108:	9f 4f       	sbci	r25, 0xFF	; 255
    310a:	08 95       	ret

0000310c <__divmodhi4_neg2>:
    310c:	70 95       	com	r23
    310e:	61 95       	neg	r22
    3110:	7f 4f       	sbci	r23, 0xFF	; 255

00003112 <__divmodhi4_exit>:
    3112:	08 95       	ret

00003114 <__udivmodsi4>:
    3114:	a1 e2       	ldi	r26, 0x21	; 33
    3116:	1a 2e       	mov	r1, r26
    3118:	aa 1b       	sub	r26, r26
    311a:	bb 1b       	sub	r27, r27
    311c:	fd 01       	movw	r30, r26
    311e:	0d c0       	rjmp	.+26     	; 0x313a <__udivmodsi4_ep>

00003120 <__udivmodsi4_loop>:
    3120:	aa 1f       	adc	r26, r26
    3122:	bb 1f       	adc	r27, r27
    3124:	ee 1f       	adc	r30, r30
    3126:	ff 1f       	adc	r31, r31
    3128:	a2 17       	cp	r26, r18
    312a:	b3 07       	cpc	r27, r19
    312c:	e4 07       	cpc	r30, r20
    312e:	f5 07       	cpc	r31, r21
    3130:	20 f0       	brcs	.+8      	; 0x313a <__udivmodsi4_ep>
    3132:	a2 1b       	sub	r26, r18
    3134:	b3 0b       	sbc	r27, r19
    3136:	e4 0b       	sbc	r30, r20
    3138:	f5 0b       	sbc	r31, r21

0000313a <__udivmodsi4_ep>:
    313a:	66 1f       	adc	r22, r22
    313c:	77 1f       	adc	r23, r23
    313e:	88 1f       	adc	r24, r24
    3140:	99 1f       	adc	r25, r25
    3142:	1a 94       	dec	r1
    3144:	69 f7       	brne	.-38     	; 0x3120 <__udivmodsi4_loop>
    3146:	60 95       	com	r22
    3148:	70 95       	com	r23
    314a:	80 95       	com	r24
    314c:	90 95       	com	r25
    314e:	9b 01       	movw	r18, r22
    3150:	ac 01       	movw	r20, r24
    3152:	bd 01       	movw	r22, r26
    3154:	cf 01       	movw	r24, r30
    3156:	08 95       	ret

00003158 <__udivmodhi4>:
    3158:	aa 1b       	sub	r26, r26
    315a:	bb 1b       	sub	r27, r27
    315c:	51 e1       	ldi	r21, 0x11	; 17
    315e:	07 c0       	rjmp	.+14     	; 0x316e <__udivmodhi4_ep>

00003160 <__udivmodhi4_loop>:
    3160:	aa 1f       	adc	r26, r26
    3162:	bb 1f       	adc	r27, r27
    3164:	a6 17       	cp	r26, r22
    3166:	b7 07       	cpc	r27, r23
    3168:	10 f0       	brcs	.+4      	; 0x316e <__udivmodhi4_ep>
    316a:	a6 1b       	sub	r26, r22
    316c:	b7 0b       	sbc	r27, r23

0000316e <__udivmodhi4_ep>:
    316e:	88 1f       	adc	r24, r24
    3170:	99 1f       	adc	r25, r25
    3172:	5a 95       	dec	r21
    3174:	a9 f7       	brne	.-22     	; 0x3160 <__udivmodhi4_loop>
    3176:	80 95       	com	r24
    3178:	90 95       	com	r25
    317a:	bc 01       	movw	r22, r24
    317c:	cd 01       	movw	r24, r26
    317e:	08 95       	ret

00003180 <__tablejump2__>:
    3180:	ee 0f       	add	r30, r30
    3182:	ff 1f       	adc	r31, r31
    3184:	05 90       	lpm	r0, Z+
    3186:	f4 91       	lpm	r31, Z
    3188:	e0 2d       	mov	r30, r0
    318a:	09 94       	ijmp

0000318c <malloc>:
    318c:	cf 93       	push	r28
    318e:	df 93       	push	r29
    3190:	82 30       	cpi	r24, 0x02	; 2
    3192:	91 05       	cpc	r25, r1
    3194:	10 f4       	brcc	.+4      	; 0x319a <malloc+0xe>
    3196:	82 e0       	ldi	r24, 0x02	; 2
    3198:	90 e0       	ldi	r25, 0x00	; 0
    319a:	e0 91 70 04 	lds	r30, 0x0470	; 0x800470 <__flp>
    319e:	f0 91 71 04 	lds	r31, 0x0471	; 0x800471 <__flp+0x1>
    31a2:	20 e0       	ldi	r18, 0x00	; 0
    31a4:	30 e0       	ldi	r19, 0x00	; 0
    31a6:	c0 e0       	ldi	r28, 0x00	; 0
    31a8:	d0 e0       	ldi	r29, 0x00	; 0
    31aa:	30 97       	sbiw	r30, 0x00	; 0
    31ac:	11 f1       	breq	.+68     	; 0x31f2 <malloc+0x66>
    31ae:	40 81       	ld	r20, Z
    31b0:	51 81       	ldd	r21, Z+1	; 0x01
    31b2:	48 17       	cp	r20, r24
    31b4:	59 07       	cpc	r21, r25
    31b6:	c0 f0       	brcs	.+48     	; 0x31e8 <malloc+0x5c>
    31b8:	48 17       	cp	r20, r24
    31ba:	59 07       	cpc	r21, r25
    31bc:	61 f4       	brne	.+24     	; 0x31d6 <malloc+0x4a>
    31be:	82 81       	ldd	r24, Z+2	; 0x02
    31c0:	93 81       	ldd	r25, Z+3	; 0x03
    31c2:	20 97       	sbiw	r28, 0x00	; 0
    31c4:	19 f0       	breq	.+6      	; 0x31cc <malloc+0x40>
    31c6:	9b 83       	std	Y+3, r25	; 0x03
    31c8:	8a 83       	std	Y+2, r24	; 0x02
    31ca:	2b c0       	rjmp	.+86     	; 0x3222 <malloc+0x96>
    31cc:	90 93 71 04 	sts	0x0471, r25	; 0x800471 <__flp+0x1>
    31d0:	80 93 70 04 	sts	0x0470, r24	; 0x800470 <__flp>
    31d4:	26 c0       	rjmp	.+76     	; 0x3222 <malloc+0x96>
    31d6:	21 15       	cp	r18, r1
    31d8:	31 05       	cpc	r19, r1
    31da:	19 f0       	breq	.+6      	; 0x31e2 <malloc+0x56>
    31dc:	42 17       	cp	r20, r18
    31de:	53 07       	cpc	r21, r19
    31e0:	18 f4       	brcc	.+6      	; 0x31e8 <malloc+0x5c>
    31e2:	9a 01       	movw	r18, r20
    31e4:	be 01       	movw	r22, r28
    31e6:	df 01       	movw	r26, r30
    31e8:	ef 01       	movw	r28, r30
    31ea:	02 80       	ldd	r0, Z+2	; 0x02
    31ec:	f3 81       	ldd	r31, Z+3	; 0x03
    31ee:	e0 2d       	mov	r30, r0
    31f0:	dc cf       	rjmp	.-72     	; 0x31aa <malloc+0x1e>
    31f2:	21 15       	cp	r18, r1
    31f4:	31 05       	cpc	r19, r1
    31f6:	09 f1       	breq	.+66     	; 0x323a <malloc+0xae>
    31f8:	28 1b       	sub	r18, r24
    31fa:	39 0b       	sbc	r19, r25
    31fc:	24 30       	cpi	r18, 0x04	; 4
    31fe:	31 05       	cpc	r19, r1
    3200:	90 f4       	brcc	.+36     	; 0x3226 <malloc+0x9a>
    3202:	12 96       	adiw	r26, 0x02	; 2
    3204:	8d 91       	ld	r24, X+
    3206:	9c 91       	ld	r25, X
    3208:	13 97       	sbiw	r26, 0x03	; 3
    320a:	61 15       	cp	r22, r1
    320c:	71 05       	cpc	r23, r1
    320e:	21 f0       	breq	.+8      	; 0x3218 <malloc+0x8c>
    3210:	fb 01       	movw	r30, r22
    3212:	93 83       	std	Z+3, r25	; 0x03
    3214:	82 83       	std	Z+2, r24	; 0x02
    3216:	04 c0       	rjmp	.+8      	; 0x3220 <malloc+0x94>
    3218:	90 93 71 04 	sts	0x0471, r25	; 0x800471 <__flp+0x1>
    321c:	80 93 70 04 	sts	0x0470, r24	; 0x800470 <__flp>
    3220:	fd 01       	movw	r30, r26
    3222:	32 96       	adiw	r30, 0x02	; 2
    3224:	44 c0       	rjmp	.+136    	; 0x32ae <malloc+0x122>
    3226:	fd 01       	movw	r30, r26
    3228:	e2 0f       	add	r30, r18
    322a:	f3 1f       	adc	r31, r19
    322c:	81 93       	st	Z+, r24
    322e:	91 93       	st	Z+, r25
    3230:	22 50       	subi	r18, 0x02	; 2
    3232:	31 09       	sbc	r19, r1
    3234:	2d 93       	st	X+, r18
    3236:	3c 93       	st	X, r19
    3238:	3a c0       	rjmp	.+116    	; 0x32ae <malloc+0x122>
    323a:	20 91 6e 04 	lds	r18, 0x046E	; 0x80046e <__brkval>
    323e:	30 91 6f 04 	lds	r19, 0x046F	; 0x80046f <__brkval+0x1>
    3242:	23 2b       	or	r18, r19
    3244:	41 f4       	brne	.+16     	; 0x3256 <malloc+0xca>
    3246:	20 91 02 01 	lds	r18, 0x0102	; 0x800102 <__malloc_heap_start>
    324a:	30 91 03 01 	lds	r19, 0x0103	; 0x800103 <__malloc_heap_start+0x1>
    324e:	30 93 6f 04 	sts	0x046F, r19	; 0x80046f <__brkval+0x1>
    3252:	20 93 6e 04 	sts	0x046E, r18	; 0x80046e <__brkval>
    3256:	20 91 00 01 	lds	r18, 0x0100	; 0x800100 <__data_start>
    325a:	30 91 01 01 	lds	r19, 0x0101	; 0x800101 <__data_start+0x1>
    325e:	21 15       	cp	r18, r1
    3260:	31 05       	cpc	r19, r1
    3262:	41 f4       	brne	.+16     	; 0x3274 <malloc+0xe8>
    3264:	2d b7       	in	r18, 0x3d	; 61
    3266:	3e b7       	in	r19, 0x3e	; 62
    3268:	40 91 04 01 	lds	r20, 0x0104	; 0x800104 <__malloc_margin>
    326c:	50 91 05 01 	lds	r21, 0x0105	; 0x800105 <__malloc_margin+0x1>
    3270:	24 1b       	sub	r18, r20
    3272:	35 0b       	sbc	r19, r21
    3274:	e0 91 6e 04 	lds	r30, 0x046E	; 0x80046e <__brkval>
    3278:	f0 91 6f 04 	lds	r31, 0x046F	; 0x80046f <__brkval+0x1>
    327c:	e2 17       	cp	r30, r18
    327e:	f3 07       	cpc	r31, r19
    3280:	a0 f4       	brcc	.+40     	; 0x32aa <malloc+0x11e>
    3282:	2e 1b       	sub	r18, r30
    3284:	3f 0b       	sbc	r19, r31
    3286:	28 17       	cp	r18, r24
    3288:	39 07       	cpc	r19, r25
    328a:	78 f0       	brcs	.+30     	; 0x32aa <malloc+0x11e>
    328c:	ac 01       	movw	r20, r24
    328e:	4e 5f       	subi	r20, 0xFE	; 254
    3290:	5f 4f       	sbci	r21, 0xFF	; 255
    3292:	24 17       	cp	r18, r20
    3294:	35 07       	cpc	r19, r21
    3296:	48 f0       	brcs	.+18     	; 0x32aa <malloc+0x11e>
    3298:	4e 0f       	add	r20, r30
    329a:	5f 1f       	adc	r21, r31
    329c:	50 93 6f 04 	sts	0x046F, r21	; 0x80046f <__brkval+0x1>
    32a0:	40 93 6e 04 	sts	0x046E, r20	; 0x80046e <__brkval>
    32a4:	81 93       	st	Z+, r24
    32a6:	91 93       	st	Z+, r25
    32a8:	02 c0       	rjmp	.+4      	; 0x32ae <malloc+0x122>
    32aa:	e0 e0       	ldi	r30, 0x00	; 0
    32ac:	f0 e0       	ldi	r31, 0x00	; 0
    32ae:	cf 01       	movw	r24, r30
    32b0:	df 91       	pop	r29
    32b2:	cf 91       	pop	r28
    32b4:	08 95       	ret

000032b6 <free>:
    32b6:	0f 93       	push	r16
    32b8:	1f 93       	push	r17
    32ba:	cf 93       	push	r28
    32bc:	df 93       	push	r29
    32be:	00 97       	sbiw	r24, 0x00	; 0
    32c0:	09 f4       	brne	.+2      	; 0x32c4 <free+0xe>
    32c2:	8c c0       	rjmp	.+280    	; 0x33dc <free+0x126>
    32c4:	fc 01       	movw	r30, r24
    32c6:	32 97       	sbiw	r30, 0x02	; 2
    32c8:	13 82       	std	Z+3, r1	; 0x03
    32ca:	12 82       	std	Z+2, r1	; 0x02
    32cc:	00 91 70 04 	lds	r16, 0x0470	; 0x800470 <__flp>
    32d0:	10 91 71 04 	lds	r17, 0x0471	; 0x800471 <__flp+0x1>
    32d4:	01 15       	cp	r16, r1
    32d6:	11 05       	cpc	r17, r1
    32d8:	81 f4       	brne	.+32     	; 0x32fa <free+0x44>
    32da:	20 81       	ld	r18, Z
    32dc:	31 81       	ldd	r19, Z+1	; 0x01
    32de:	82 0f       	add	r24, r18
    32e0:	93 1f       	adc	r25, r19
    32e2:	20 91 6e 04 	lds	r18, 0x046E	; 0x80046e <__brkval>
    32e6:	30 91 6f 04 	lds	r19, 0x046F	; 0x80046f <__brkval+0x1>
    32ea:	28 17       	cp	r18, r24
    32ec:	39 07       	cpc	r19, r25
    32ee:	79 f5       	brne	.+94     	; 0x334e <free+0x98>
    32f0:	f0 93 6f 04 	sts	0x046F, r31	; 0x80046f <__brkval+0x1>
    32f4:	e0 93 6e 04 	sts	0x046E, r30	; 0x80046e <__brkval>
    32f8:	71 c0       	rjmp	.+226    	; 0x33dc <free+0x126>
    32fa:	d8 01       	movw	r26, r16
    32fc:	40 e0       	ldi	r20, 0x00	; 0
    32fe:	50 e0       	ldi	r21, 0x00	; 0
    3300:	ae 17       	cp	r26, r30
    3302:	bf 07       	cpc	r27, r31
    3304:	50 f4       	brcc	.+20     	; 0x331a <free+0x64>
    3306:	12 96       	adiw	r26, 0x02	; 2
    3308:	2d 91       	ld	r18, X+
    330a:	3c 91       	ld	r19, X
    330c:	13 97       	sbiw	r26, 0x03	; 3
    330e:	ad 01       	movw	r20, r26
    3310:	21 15       	cp	r18, r1
    3312:	31 05       	cpc	r19, r1
    3314:	09 f1       	breq	.+66     	; 0x3358 <free+0xa2>
    3316:	d9 01       	movw	r26, r18
    3318:	f3 cf       	rjmp	.-26     	; 0x3300 <free+0x4a>
    331a:	9d 01       	movw	r18, r26
    331c:	da 01       	movw	r26, r20
    331e:	33 83       	std	Z+3, r19	; 0x03
    3320:	22 83       	std	Z+2, r18	; 0x02
    3322:	60 81       	ld	r22, Z
    3324:	71 81       	ldd	r23, Z+1	; 0x01
    3326:	86 0f       	add	r24, r22
    3328:	97 1f       	adc	r25, r23
    332a:	82 17       	cp	r24, r18
    332c:	93 07       	cpc	r25, r19
    332e:	69 f4       	brne	.+26     	; 0x334a <free+0x94>
    3330:	ec 01       	movw	r28, r24
    3332:	28 81       	ld	r18, Y
    3334:	39 81       	ldd	r19, Y+1	; 0x01
    3336:	26 0f       	add	r18, r22
    3338:	37 1f       	adc	r19, r23
    333a:	2e 5f       	subi	r18, 0xFE	; 254
    333c:	3f 4f       	sbci	r19, 0xFF	; 255
    333e:	31 83       	std	Z+1, r19	; 0x01
    3340:	20 83       	st	Z, r18
    3342:	8a 81       	ldd	r24, Y+2	; 0x02
    3344:	9b 81       	ldd	r25, Y+3	; 0x03
    3346:	93 83       	std	Z+3, r25	; 0x03
    3348:	82 83       	std	Z+2, r24	; 0x02
    334a:	45 2b       	or	r20, r21
    334c:	29 f4       	brne	.+10     	; 0x3358 <free+0xa2>
    334e:	f0 93 71 04 	sts	0x0471, r31	; 0x800471 <__flp+0x1>
    3352:	e0 93 70 04 	sts	0x0470, r30	; 0x800470 <__flp>
    3356:	42 c0       	rjmp	.+132    	; 0x33dc <free+0x126>
    3358:	13 96       	adiw	r26, 0x03	; 3
    335a:	fc 93       	st	X, r31
    335c:	ee 93       	st	-X, r30
    335e:	12 97       	sbiw	r26, 0x02	; 2
    3360:	ed 01       	movw	r28, r26
    3362:	49 91       	ld	r20, Y+
    3364:	59 91       	ld	r21, Y+
    3366:	9e 01       	movw	r18, r28
    3368:	24 0f       	add	r18, r20
    336a:	35 1f       	adc	r19, r21
    336c:	e2 17       	cp	r30, r18
    336e:	f3 07       	cpc	r31, r19
    3370:	71 f4       	brne	.+28     	; 0x338e <free+0xd8>
    3372:	80 81       	ld	r24, Z
    3374:	91 81       	ldd	r25, Z+1	; 0x01
    3376:	84 0f       	add	r24, r20
    3378:	95 1f       	adc	r25, r21
    337a:	02 96       	adiw	r24, 0x02	; 2
    337c:	11 96       	adiw	r26, 0x01	; 1
    337e:	9c 93       	st	X, r25
    3380:	8e 93       	st	-X, r24
    3382:	82 81       	ldd	r24, Z+2	; 0x02
    3384:	93 81       	ldd	r25, Z+3	; 0x03
    3386:	13 96       	adiw	r26, 0x03	; 3
    3388:	9c 93       	st	X, r25
    338a:	8e 93       	st	-X, r24
    338c:	12 97       	sbiw	r26, 0x02	; 2
    338e:	e0 e0       	ldi	r30, 0x00	; 0
    3390:	f0 e0       	ldi	r31, 0x00	; 0
    3392:	d8 01       	movw	r26, r16
    3394:	12 96       	adiw	r26, 0x02	; 2
    3396:	8d 91       	ld	r24, X+
    3398:	9c 91       	ld	r25, X
    339a:	13 97       	sbiw	r26, 0x03	; 3
    339c:	00 97       	sbiw	r24, 0x00	; 0
    339e:	19 f0       	breq	.+6      	; 0x33a6 <free+0xf0>
    33a0:	f8 01       	movw	r30, r16
    33a2:	8c 01       	movw	r16, r24
    33a4:	f6 cf       	rjmp	.-20     	; 0x3392 <free+0xdc>
    33a6:	8d 91       	ld	r24, X+
    33a8:	9c 91       	ld	r25, X
    33aa:	98 01       	movw	r18, r16
    33ac:	2e 5f       	subi	r18, 0xFE	; 254
    33ae:	3f 4f       	sbci	r19, 0xFF	; 255
    33b0:	82 0f       	add	r24, r18
    33b2:	93 1f       	adc	r25, r19
    33b4:	20 91 6e 04 	lds	r18, 0x046E	; 0x80046e <__brkval>
    33b8:	30 91 6f 04 	lds	r19, 0x046F	; 0x80046f <__brkval+0x1>
    33bc:	28 17       	cp	r18, r24
    33be:	39 07       	cpc	r19, r25
    33c0:	69 f4       	brne	.+26     	; 0x33dc <free+0x126>
    33c2:	30 97       	sbiw	r30, 0x00	; 0
    33c4:	29 f4       	brne	.+10     	; 0x33d0 <free+0x11a>
    33c6:	10 92 71 04 	sts	0x0471, r1	; 0x800471 <__flp+0x1>
    33ca:	10 92 70 04 	sts	0x0470, r1	; 0x800470 <__flp>
    33ce:	02 c0       	rjmp	.+4      	; 0x33d4 <free+0x11e>
    33d0:	13 82       	std	Z+3, r1	; 0x03
    33d2:	12 82       	std	Z+2, r1	; 0x02
    33d4:	10 93 6f 04 	sts	0x046F, r17	; 0x80046f <__brkval+0x1>
    33d8:	00 93 6e 04 	sts	0x046E, r16	; 0x80046e <__brkval>
    33dc:	df 91       	pop	r29
    33de:	cf 91       	pop	r28
    33e0:	1f 91       	pop	r17
    33e2:	0f 91       	pop	r16
    33e4:	08 95       	ret

000033e6 <realloc>:
    33e6:	a0 e0       	ldi	r26, 0x00	; 0
    33e8:	b0 e0       	ldi	r27, 0x00	; 0
    33ea:	e9 ef       	ldi	r30, 0xF9	; 249
    33ec:	f9 e1       	ldi	r31, 0x19	; 25
    33ee:	0c 94 9c 1c 	jmp	0x3938	; 0x3938 <__prologue_saves__+0x8>
    33f2:	ec 01       	movw	r28, r24
    33f4:	00 97       	sbiw	r24, 0x00	; 0
    33f6:	21 f4       	brne	.+8      	; 0x3400 <realloc+0x1a>
    33f8:	cb 01       	movw	r24, r22
    33fa:	0e 94 c6 18 	call	0x318c	; 0x318c <malloc>
    33fe:	b8 c0       	rjmp	.+368    	; 0x3570 <realloc+0x18a>
    3400:	fc 01       	movw	r30, r24
    3402:	e6 0f       	add	r30, r22
    3404:	f7 1f       	adc	r31, r23
    3406:	9c 01       	movw	r18, r24
    3408:	22 50       	subi	r18, 0x02	; 2
    340a:	31 09       	sbc	r19, r1
    340c:	e2 17       	cp	r30, r18
    340e:	f3 07       	cpc	r31, r19
    3410:	08 f4       	brcc	.+2      	; 0x3414 <realloc+0x2e>
    3412:	ac c0       	rjmp	.+344    	; 0x356c <realloc+0x186>
    3414:	d9 01       	movw	r26, r18
    3416:	0d 91       	ld	r16, X+
    3418:	1c 91       	ld	r17, X
    341a:	11 97       	sbiw	r26, 0x01	; 1
    341c:	06 17       	cp	r16, r22
    341e:	17 07       	cpc	r17, r23
    3420:	b0 f0       	brcs	.+44     	; 0x344e <realloc+0x68>
    3422:	05 30       	cpi	r16, 0x05	; 5
    3424:	11 05       	cpc	r17, r1
    3426:	08 f4       	brcc	.+2      	; 0x342a <realloc+0x44>
    3428:	9f c0       	rjmp	.+318    	; 0x3568 <realloc+0x182>
    342a:	c8 01       	movw	r24, r16
    342c:	04 97       	sbiw	r24, 0x04	; 4
    342e:	86 17       	cp	r24, r22
    3430:	97 07       	cpc	r25, r23
    3432:	08 f4       	brcc	.+2      	; 0x3436 <realloc+0x50>
    3434:	99 c0       	rjmp	.+306    	; 0x3568 <realloc+0x182>
    3436:	02 50       	subi	r16, 0x02	; 2
    3438:	11 09       	sbc	r17, r1
    343a:	06 1b       	sub	r16, r22
    343c:	17 0b       	sbc	r17, r23
    343e:	01 93       	st	Z+, r16
    3440:	11 93       	st	Z+, r17
    3442:	6d 93       	st	X+, r22
    3444:	7c 93       	st	X, r23
    3446:	cf 01       	movw	r24, r30
    3448:	0e 94 5b 19 	call	0x32b6	; 0x32b6 <free>
    344c:	8d c0       	rjmp	.+282    	; 0x3568 <realloc+0x182>
    344e:	5b 01       	movw	r10, r22
    3450:	a0 1a       	sub	r10, r16
    3452:	b1 0a       	sbc	r11, r17
    3454:	4c 01       	movw	r8, r24
    3456:	80 0e       	add	r8, r16
    3458:	91 1e       	adc	r9, r17
    345a:	a0 91 70 04 	lds	r26, 0x0470	; 0x800470 <__flp>
    345e:	b0 91 71 04 	lds	r27, 0x0471	; 0x800471 <__flp+0x1>
    3462:	40 e0       	ldi	r20, 0x00	; 0
    3464:	50 e0       	ldi	r21, 0x00	; 0
    3466:	e1 2c       	mov	r14, r1
    3468:	f1 2c       	mov	r15, r1
    346a:	10 97       	sbiw	r26, 0x00	; 0
    346c:	09 f4       	brne	.+2      	; 0x3470 <realloc+0x8a>
    346e:	4a c0       	rjmp	.+148    	; 0x3504 <realloc+0x11e>
    3470:	a8 15       	cp	r26, r8
    3472:	b9 05       	cpc	r27, r9
    3474:	d1 f5       	brne	.+116    	; 0x34ea <realloc+0x104>
    3476:	6d 90       	ld	r6, X+
    3478:	7c 90       	ld	r7, X
    347a:	11 97       	sbiw	r26, 0x01	; 1
    347c:	63 01       	movw	r12, r6
    347e:	82 e0       	ldi	r24, 0x02	; 2
    3480:	c8 0e       	add	r12, r24
    3482:	d1 1c       	adc	r13, r1
    3484:	ca 14       	cp	r12, r10
    3486:	db 04       	cpc	r13, r11
    3488:	80 f1       	brcs	.+96     	; 0x34ea <realloc+0x104>
    348a:	a3 01       	movw	r20, r6
    348c:	4a 19       	sub	r20, r10
    348e:	5b 09       	sbc	r21, r11
    3490:	6a 01       	movw	r12, r20
    3492:	82 e0       	ldi	r24, 0x02	; 2
    3494:	c8 0e       	add	r12, r24
    3496:	d1 1c       	adc	r13, r1
    3498:	12 96       	adiw	r26, 0x02	; 2
    349a:	bc 90       	ld	r11, X
    349c:	12 97       	sbiw	r26, 0x02	; 2
    349e:	13 96       	adiw	r26, 0x03	; 3
    34a0:	ac 91       	ld	r26, X
    34a2:	b5 e0       	ldi	r27, 0x05	; 5
    34a4:	cb 16       	cp	r12, r27
    34a6:	d1 04       	cpc	r13, r1
    34a8:	40 f0       	brcs	.+16     	; 0x34ba <realloc+0xd4>
    34aa:	b2 82       	std	Z+2, r11	; 0x02
    34ac:	a3 83       	std	Z+3, r26	; 0x03
    34ae:	51 83       	std	Z+1, r21	; 0x01
    34b0:	40 83       	st	Z, r20
    34b2:	d9 01       	movw	r26, r18
    34b4:	6d 93       	st	X+, r22
    34b6:	7c 93       	st	X, r23
    34b8:	0a c0       	rjmp	.+20     	; 0x34ce <realloc+0xe8>
    34ba:	0e 5f       	subi	r16, 0xFE	; 254
    34bc:	1f 4f       	sbci	r17, 0xFF	; 255
    34be:	c3 01       	movw	r24, r6
    34c0:	80 0f       	add	r24, r16
    34c2:	91 1f       	adc	r25, r17
    34c4:	f9 01       	movw	r30, r18
    34c6:	91 83       	std	Z+1, r25	; 0x01
    34c8:	80 83       	st	Z, r24
    34ca:	eb 2d       	mov	r30, r11
    34cc:	fa 2f       	mov	r31, r26
    34ce:	e1 14       	cp	r14, r1
    34d0:	f1 04       	cpc	r15, r1
    34d2:	31 f0       	breq	.+12     	; 0x34e0 <realloc+0xfa>
    34d4:	d7 01       	movw	r26, r14
    34d6:	13 96       	adiw	r26, 0x03	; 3
    34d8:	fc 93       	st	X, r31
    34da:	ee 93       	st	-X, r30
    34dc:	12 97       	sbiw	r26, 0x02	; 2
    34de:	44 c0       	rjmp	.+136    	; 0x3568 <realloc+0x182>
    34e0:	f0 93 71 04 	sts	0x0471, r31	; 0x800471 <__flp+0x1>
    34e4:	e0 93 70 04 	sts	0x0470, r30	; 0x800470 <__flp>
    34e8:	3f c0       	rjmp	.+126    	; 0x3568 <realloc+0x182>
    34ea:	8d 91       	ld	r24, X+
    34ec:	9c 91       	ld	r25, X
    34ee:	11 97       	sbiw	r26, 0x01	; 1
    34f0:	48 17       	cp	r20, r24
    34f2:	59 07       	cpc	r21, r25
    34f4:	08 f4       	brcc	.+2      	; 0x34f8 <realloc+0x112>
    34f6:	ac 01       	movw	r20, r24
    34f8:	7d 01       	movw	r14, r26
    34fa:	12 96       	adiw	r26, 0x02	; 2
    34fc:	0d 90       	ld	r0, X+
    34fe:	bc 91       	ld	r27, X
    3500:	a0 2d       	mov	r26, r0
    3502:	b3 cf       	rjmp	.-154    	; 0x346a <realloc+0x84>
    3504:	80 91 6e 04 	lds	r24, 0x046E	; 0x80046e <__brkval>
    3508:	90 91 6f 04 	lds	r25, 0x046F	; 0x80046f <__brkval+0x1>
    350c:	88 15       	cp	r24, r8
    350e:	99 05       	cpc	r25, r9
    3510:	e1 f4       	brne	.+56     	; 0x354a <realloc+0x164>
    3512:	46 17       	cp	r20, r22
    3514:	57 07       	cpc	r21, r23
    3516:	c8 f4       	brcc	.+50     	; 0x354a <realloc+0x164>
    3518:	80 91 00 01 	lds	r24, 0x0100	; 0x800100 <__data_start>
    351c:	90 91 01 01 	lds	r25, 0x0101	; 0x800101 <__data_start+0x1>
    3520:	00 97       	sbiw	r24, 0x00	; 0
    3522:	41 f4       	brne	.+16     	; 0x3534 <realloc+0x14e>
    3524:	8d b7       	in	r24, 0x3d	; 61
    3526:	9e b7       	in	r25, 0x3e	; 62
    3528:	40 91 04 01 	lds	r20, 0x0104	; 0x800104 <__malloc_margin>
    352c:	50 91 05 01 	lds	r21, 0x0105	; 0x800105 <__malloc_margin+0x1>
    3530:	84 1b       	sub	r24, r20
    3532:	95 0b       	sbc	r25, r21
    3534:	e8 17       	cp	r30, r24
    3536:	f9 07       	cpc	r31, r25
    3538:	c8 f4       	brcc	.+50     	; 0x356c <realloc+0x186>
    353a:	f0 93 6f 04 	sts	0x046F, r31	; 0x80046f <__brkval+0x1>
    353e:	e0 93 6e 04 	sts	0x046E, r30	; 0x80046e <__brkval>
    3542:	f9 01       	movw	r30, r18
    3544:	71 83       	std	Z+1, r23	; 0x01
    3546:	60 83       	st	Z, r22
    3548:	0f c0       	rjmp	.+30     	; 0x3568 <realloc+0x182>
    354a:	cb 01       	movw	r24, r22
    354c:	0e 94 c6 18 	call	0x318c	; 0x318c <malloc>
    3550:	7c 01       	movw	r14, r24
    3552:	00 97       	sbiw	r24, 0x00	; 0
    3554:	59 f0       	breq	.+22     	; 0x356c <realloc+0x186>
    3556:	a8 01       	movw	r20, r16
    3558:	be 01       	movw	r22, r28
    355a:	0e 94 cf 1a 	call	0x359e	; 0x359e <memcpy>
    355e:	ce 01       	movw	r24, r28
    3560:	0e 94 5b 19 	call	0x32b6	; 0x32b6 <free>
    3564:	c7 01       	movw	r24, r14
    3566:	04 c0       	rjmp	.+8      	; 0x3570 <realloc+0x18a>
    3568:	ce 01       	movw	r24, r28
    356a:	02 c0       	rjmp	.+4      	; 0x3570 <realloc+0x18a>
    356c:	80 e0       	ldi	r24, 0x00	; 0
    356e:	90 e0       	ldi	r25, 0x00	; 0
    3570:	cd b7       	in	r28, 0x3d	; 61
    3572:	de b7       	in	r29, 0x3e	; 62
    3574:	ee e0       	ldi	r30, 0x0E	; 14
    3576:	0c 94 b8 1c 	jmp	0x3970	; 0x3970 <__epilogue_restores__+0x8>

0000357a <atof>:
    357a:	66 27       	eor	r22, r22
    357c:	77 27       	eor	r23, r23
    357e:	0c 94 15 1b 	jmp	0x362a	; 0x362a <strtod>

00003582 <isspace>:
    3582:	91 11       	cpse	r25, r1
    3584:	0c 94 72 1c 	jmp	0x38e4	; 0x38e4 <__ctype_isfalse>
    3588:	80 32       	cpi	r24, 0x20	; 32
    358a:	19 f0       	breq	.+6      	; 0x3592 <isspace+0x10>
    358c:	89 50       	subi	r24, 0x09	; 9
    358e:	85 50       	subi	r24, 0x05	; 5
    3590:	c8 f7       	brcc	.-14     	; 0x3584 <isspace+0x2>
    3592:	08 95       	ret

00003594 <strtok>:
    3594:	46 e2       	ldi	r20, 0x26	; 38
    3596:	52 e0       	ldi	r21, 0x02	; 2
    3598:	0e 94 ee 1a 	call	0x35dc	; 0x35dc <strtok_r>
    359c:	08 95       	ret

0000359e <memcpy>:
    359e:	fb 01       	movw	r30, r22
    35a0:	dc 01       	movw	r26, r24
    35a2:	02 c0       	rjmp	.+4      	; 0x35a8 <memcpy+0xa>
    35a4:	01 90       	ld	r0, Z+
    35a6:	0d 92       	st	X+, r0
    35a8:	41 50       	subi	r20, 0x01	; 1
    35aa:	50 40       	sbci	r21, 0x00	; 0
    35ac:	d8 f7       	brcc	.-10     	; 0x35a4 <memcpy+0x6>
    35ae:	08 95       	ret

000035b0 <strcpy>:
    35b0:	fb 01       	movw	r30, r22
    35b2:	dc 01       	movw	r26, r24
    35b4:	01 90       	ld	r0, Z+
    35b6:	0d 92       	st	X+, r0
    35b8:	00 20       	and	r0, r0
    35ba:	e1 f7       	brne	.-8      	; 0x35b4 <strcpy+0x4>
    35bc:	08 95       	ret

000035be <strncpy>:
    35be:	fb 01       	movw	r30, r22
    35c0:	dc 01       	movw	r26, r24
    35c2:	41 50       	subi	r20, 0x01	; 1
    35c4:	50 40       	sbci	r21, 0x00	; 0
    35c6:	48 f0       	brcs	.+18     	; 0x35da <strncpy+0x1c>
    35c8:	01 90       	ld	r0, Z+
    35ca:	0d 92       	st	X+, r0
    35cc:	00 20       	and	r0, r0
    35ce:	c9 f7       	brne	.-14     	; 0x35c2 <strncpy+0x4>
    35d0:	01 c0       	rjmp	.+2      	; 0x35d4 <strncpy+0x16>
    35d2:	1d 92       	st	X+, r1
    35d4:	41 50       	subi	r20, 0x01	; 1
    35d6:	50 40       	sbci	r21, 0x00	; 0
    35d8:	e0 f7       	brcc	.-8      	; 0x35d2 <strncpy+0x14>
    35da:	08 95       	ret

000035dc <strtok_r>:
    35dc:	fa 01       	movw	r30, r20
    35de:	a1 91       	ld	r26, Z+
    35e0:	b0 81       	ld	r27, Z
    35e2:	00 97       	sbiw	r24, 0x00	; 0
    35e4:	19 f4       	brne	.+6      	; 0x35ec <strtok_r+0x10>
    35e6:	10 97       	sbiw	r26, 0x00	; 0
    35e8:	e1 f0       	breq	.+56     	; 0x3622 <strtok_r+0x46>
    35ea:	cd 01       	movw	r24, r26
    35ec:	dc 01       	movw	r26, r24
    35ee:	cd 01       	movw	r24, r26
    35f0:	0d 90       	ld	r0, X+
    35f2:	00 20       	and	r0, r0
    35f4:	11 f4       	brne	.+4      	; 0x35fa <strtok_r+0x1e>
    35f6:	c0 01       	movw	r24, r0
    35f8:	13 c0       	rjmp	.+38     	; 0x3620 <strtok_r+0x44>
    35fa:	fb 01       	movw	r30, r22
    35fc:	21 91       	ld	r18, Z+
    35fe:	22 23       	and	r18, r18
    3600:	19 f0       	breq	.+6      	; 0x3608 <strtok_r+0x2c>
    3602:	20 15       	cp	r18, r0
    3604:	d9 f7       	brne	.-10     	; 0x35fc <strtok_r+0x20>
    3606:	f3 cf       	rjmp	.-26     	; 0x35ee <strtok_r+0x12>
    3608:	fb 01       	movw	r30, r22
    360a:	21 91       	ld	r18, Z+
    360c:	20 15       	cp	r18, r0
    360e:	19 f4       	brne	.+6      	; 0x3616 <strtok_r+0x3a>
    3610:	1e 92       	st	-X, r1
    3612:	11 96       	adiw	r26, 0x01	; 1
    3614:	06 c0       	rjmp	.+12     	; 0x3622 <strtok_r+0x46>
    3616:	22 23       	and	r18, r18
    3618:	c1 f7       	brne	.-16     	; 0x360a <strtok_r+0x2e>
    361a:	0d 90       	ld	r0, X+
    361c:	00 20       	and	r0, r0
    361e:	a1 f7       	brne	.-24     	; 0x3608 <strtok_r+0x2c>
    3620:	d0 01       	movw	r26, r0
    3622:	fa 01       	movw	r30, r20
    3624:	a1 93       	st	Z+, r26
    3626:	b0 83       	st	Z, r27
    3628:	08 95       	ret

0000362a <strtod>:
    362a:	a0 e0       	ldi	r26, 0x00	; 0
    362c:	b0 e0       	ldi	r27, 0x00	; 0
    362e:	eb e1       	ldi	r30, 0x1B	; 27
    3630:	fb e1       	ldi	r31, 0x1B	; 27
    3632:	0c 94 9c 1c 	jmp	0x3938	; 0x3938 <__prologue_saves__+0x8>
    3636:	ec 01       	movw	r28, r24
    3638:	7b 01       	movw	r14, r22
    363a:	61 15       	cp	r22, r1
    363c:	71 05       	cpc	r23, r1
    363e:	19 f0       	breq	.+6      	; 0x3646 <strtod+0x1c>
    3640:	db 01       	movw	r26, r22
    3642:	8d 93       	st	X+, r24
    3644:	9c 93       	st	X, r25
    3646:	8e 01       	movw	r16, r28
    3648:	0f 5f       	subi	r16, 0xFF	; 255
    364a:	1f 4f       	sbci	r17, 0xFF	; 255
    364c:	78 80       	ld	r7, Y
    364e:	87 2d       	mov	r24, r7
    3650:	90 e0       	ldi	r25, 0x00	; 0
    3652:	0e 94 c1 1a 	call	0x3582	; 0x3582 <isspace>
    3656:	89 2b       	or	r24, r25
    3658:	11 f0       	breq	.+4      	; 0x365e <strtod+0x34>
    365a:	e8 01       	movw	r28, r16
    365c:	f4 cf       	rjmp	.-24     	; 0x3646 <strtod+0x1c>
    365e:	bd e2       	ldi	r27, 0x2D	; 45
    3660:	7b 12       	cpse	r7, r27
    3662:	05 c0       	rjmp	.+10     	; 0x366e <strtod+0x44>
    3664:	0f 5f       	subi	r16, 0xFF	; 255
    3666:	1f 4f       	sbci	r17, 0xFF	; 255
    3668:	79 80       	ldd	r7, Y+1	; 0x01
    366a:	c1 e0       	ldi	r28, 0x01	; 1
    366c:	08 c0       	rjmp	.+16     	; 0x367e <strtod+0x54>
    366e:	eb e2       	ldi	r30, 0x2B	; 43
    3670:	7e 12       	cpse	r7, r30
    3672:	04 c0       	rjmp	.+8      	; 0x367c <strtod+0x52>
    3674:	8e 01       	movw	r16, r28
    3676:	0e 5f       	subi	r16, 0xFE	; 254
    3678:	1f 4f       	sbci	r17, 0xFF	; 255
    367a:	79 80       	ldd	r7, Y+1	; 0x01
    367c:	c0 e0       	ldi	r28, 0x00	; 0
    367e:	68 01       	movw	r12, r16
    3680:	f1 e0       	ldi	r31, 0x01	; 1
    3682:	cf 1a       	sub	r12, r31
    3684:	d1 08       	sbc	r13, r1
    3686:	43 e0       	ldi	r20, 0x03	; 3
    3688:	50 e0       	ldi	r21, 0x00	; 0
    368a:	6e e9       	ldi	r22, 0x9E	; 158
    368c:	70 e0       	ldi	r23, 0x00	; 0
    368e:	c6 01       	movw	r24, r12
    3690:	0e 94 75 1c 	call	0x38ea	; 0x38ea <strncasecmp_P>
    3694:	89 2b       	or	r24, r25
    3696:	f1 f4       	brne	.+60     	; 0x36d4 <strtod+0xaa>
    3698:	68 01       	movw	r12, r16
    369a:	22 e0       	ldi	r18, 0x02	; 2
    369c:	c2 0e       	add	r12, r18
    369e:	d1 1c       	adc	r13, r1
    36a0:	45 e0       	ldi	r20, 0x05	; 5
    36a2:	50 e0       	ldi	r21, 0x00	; 0
    36a4:	69 e9       	ldi	r22, 0x99	; 153
    36a6:	70 e0       	ldi	r23, 0x00	; 0
    36a8:	c6 01       	movw	r24, r12
    36aa:	0e 94 75 1c 	call	0x38ea	; 0x38ea <strncasecmp_P>
    36ae:	89 2b       	or	r24, r25
    36b0:	21 f4       	brne	.+8      	; 0x36ba <strtod+0x90>
    36b2:	68 01       	movw	r12, r16
    36b4:	87 e0       	ldi	r24, 0x07	; 7
    36b6:	c8 0e       	add	r12, r24
    36b8:	d1 1c       	adc	r13, r1
    36ba:	e1 14       	cp	r14, r1
    36bc:	f1 04       	cpc	r15, r1
    36be:	19 f0       	breq	.+6      	; 0x36c6 <strtod+0x9c>
    36c0:	d7 01       	movw	r26, r14
    36c2:	cd 92       	st	X+, r12
    36c4:	dc 92       	st	X, r13
    36c6:	c1 11       	cpse	r28, r1
    36c8:	ff c0       	rjmp	.+510    	; 0x38c8 <strtod+0x29e>
    36ca:	60 e0       	ldi	r22, 0x00	; 0
    36cc:	70 e0       	ldi	r23, 0x00	; 0
    36ce:	80 e8       	ldi	r24, 0x80	; 128
    36d0:	9f e7       	ldi	r25, 0x7F	; 127
    36d2:	03 c1       	rjmp	.+518    	; 0x38da <strtod+0x2b0>
    36d4:	43 e0       	ldi	r20, 0x03	; 3
    36d6:	50 e0       	ldi	r21, 0x00	; 0
    36d8:	66 e9       	ldi	r22, 0x96	; 150
    36da:	70 e0       	ldi	r23, 0x00	; 0
    36dc:	c6 01       	movw	r24, r12
    36de:	0e 94 75 1c 	call	0x38ea	; 0x38ea <strncasecmp_P>
    36e2:	89 2b       	or	r24, r25
    36e4:	51 f4       	brne	.+20     	; 0x36fa <strtod+0xd0>
    36e6:	e1 14       	cp	r14, r1
    36e8:	f1 04       	cpc	r15, r1
    36ea:	09 f4       	brne	.+2      	; 0x36ee <strtod+0xc4>
    36ec:	f2 c0       	rjmp	.+484    	; 0x38d2 <strtod+0x2a8>
    36ee:	0e 5f       	subi	r16, 0xFE	; 254
    36f0:	1f 4f       	sbci	r17, 0xFF	; 255
    36f2:	f7 01       	movw	r30, r14
    36f4:	11 83       	std	Z+1, r17	; 0x01
    36f6:	00 83       	st	Z, r16
    36f8:	ec c0       	rjmp	.+472    	; 0x38d2 <strtod+0x2a8>
    36fa:	68 01       	movw	r12, r16
    36fc:	60 e0       	ldi	r22, 0x00	; 0
    36fe:	70 e0       	ldi	r23, 0x00	; 0
    3700:	cb 01       	movw	r24, r22
    3702:	00 e0       	ldi	r16, 0x00	; 0
    3704:	10 e0       	ldi	r17, 0x00	; 0
    3706:	f6 01       	movw	r30, r12
    3708:	d0 ed       	ldi	r29, 0xD0	; 208
    370a:	d7 0d       	add	r29, r7
    370c:	da 30       	cpi	r29, 0x0A	; 10
    370e:	58 f5       	brcc	.+86     	; 0x3766 <strtod+0x13c>
    3710:	2c 2f       	mov	r18, r28
    3712:	22 60       	ori	r18, 0x02	; 2
    3714:	62 2e       	mov	r6, r18
    3716:	2c 2f       	mov	r18, r28
    3718:	28 70       	andi	r18, 0x08	; 8
    371a:	c2 ff       	sbrs	r28, 2
    371c:	05 c0       	rjmp	.+10     	; 0x3728 <strtod+0xfe>
    371e:	21 11       	cpse	r18, r1
    3720:	28 c0       	rjmp	.+80     	; 0x3772 <strtod+0x148>
    3722:	0f 5f       	subi	r16, 0xFF	; 255
    3724:	1f 4f       	sbci	r17, 0xFF	; 255
    3726:	25 c0       	rjmp	.+74     	; 0x3772 <strtod+0x148>
    3728:	22 23       	and	r18, r18
    372a:	11 f0       	breq	.+4      	; 0x3730 <strtod+0x106>
    372c:	01 50       	subi	r16, 0x01	; 1
    372e:	11 09       	sbc	r17, r1
    3730:	a5 e0       	ldi	r26, 0x05	; 5
    3732:	b0 e0       	ldi	r27, 0x00	; 0
    3734:	9b 01       	movw	r18, r22
    3736:	ac 01       	movw	r20, r24
    3738:	0e 94 8d 1c 	call	0x391a	; 0x391a <__muluhisi3>
    373c:	4b 01       	movw	r8, r22
    373e:	5c 01       	movw	r10, r24
    3740:	88 0c       	add	r8, r8
    3742:	99 1c       	adc	r9, r9
    3744:	aa 1c       	adc	r10, r10
    3746:	bb 1c       	adc	r11, r11
    3748:	c5 01       	movw	r24, r10
    374a:	b4 01       	movw	r22, r8
    374c:	6d 0f       	add	r22, r29
    374e:	71 1d       	adc	r23, r1
    3750:	81 1d       	adc	r24, r1
    3752:	91 1d       	adc	r25, r1
    3754:	68 39       	cpi	r22, 0x98	; 152
    3756:	a9 e9       	ldi	r26, 0x99	; 153
    3758:	7a 07       	cpc	r23, r26
    375a:	8a 07       	cpc	r24, r26
    375c:	a9 e1       	ldi	r26, 0x19	; 25
    375e:	9a 07       	cpc	r25, r26
    3760:	40 f0       	brcs	.+16     	; 0x3772 <strtod+0x148>
    3762:	c6 60       	ori	r28, 0x06	; 6
    3764:	05 c0       	rjmp	.+10     	; 0x3770 <strtod+0x146>
    3766:	de 3f       	cpi	r29, 0xFE	; 254
    3768:	51 f4       	brne	.+20     	; 0x377e <strtod+0x154>
    376a:	c3 fd       	sbrc	r28, 3
    376c:	44 c0       	rjmp	.+136    	; 0x37f6 <strtod+0x1cc>
    376e:	c8 60       	ori	r28, 0x08	; 8
    3770:	6c 2e       	mov	r6, r28
    3772:	bf ef       	ldi	r27, 0xFF	; 255
    3774:	cb 1a       	sub	r12, r27
    3776:	db 0a       	sbc	r13, r27
    3778:	70 80       	ld	r7, Z
    377a:	c6 2d       	mov	r28, r6
    377c:	c4 cf       	rjmp	.-120    	; 0x3706 <strtod+0xdc>
    377e:	2d 2f       	mov	r18, r29
    3780:	2f 7d       	andi	r18, 0xDF	; 223
    3782:	25 31       	cpi	r18, 0x15	; 21
    3784:	c1 f5       	brne	.+112    	; 0x37f6 <strtod+0x1cc>
    3786:	40 81       	ld	r20, Z
    3788:	4d 32       	cpi	r20, 0x2D	; 45
    378a:	11 f4       	brne	.+4      	; 0x3790 <strtod+0x166>
    378c:	c0 61       	ori	r28, 0x10	; 16
    378e:	06 c0       	rjmp	.+12     	; 0x379c <strtod+0x172>
    3790:	4b 32       	cpi	r20, 0x2B	; 43
    3792:	21 f0       	breq	.+8      	; 0x379c <strtod+0x172>
    3794:	31 96       	adiw	r30, 0x01	; 1
    3796:	21 e0       	ldi	r18, 0x01	; 1
    3798:	30 e0       	ldi	r19, 0x00	; 0
    379a:	06 c0       	rjmp	.+12     	; 0x37a8 <strtod+0x17e>
    379c:	32 96       	adiw	r30, 0x02	; 2
    379e:	d6 01       	movw	r26, r12
    37a0:	11 96       	adiw	r26, 0x01	; 1
    37a2:	4c 91       	ld	r20, X
    37a4:	22 e0       	ldi	r18, 0x02	; 2
    37a6:	30 e0       	ldi	r19, 0x00	; 0
    37a8:	a0 ed       	ldi	r26, 0xD0	; 208
    37aa:	a4 0f       	add	r26, r20
    37ac:	aa 30       	cpi	r26, 0x0A	; 10
    37ae:	18 f0       	brcs	.+6      	; 0x37b6 <strtod+0x18c>
    37b0:	e2 1b       	sub	r30, r18
    37b2:	f3 0b       	sbc	r31, r19
    37b4:	20 c0       	rjmp	.+64     	; 0x37f6 <strtod+0x1cc>
    37b6:	40 e0       	ldi	r20, 0x00	; 0
    37b8:	50 e0       	ldi	r21, 0x00	; 0
    37ba:	40 38       	cpi	r20, 0x80	; 128
    37bc:	bc e0       	ldi	r27, 0x0C	; 12
    37be:	5b 07       	cpc	r21, r27
    37c0:	5c f4       	brge	.+22     	; 0x37d8 <strtod+0x1ae>
    37c2:	9a 01       	movw	r18, r20
    37c4:	22 0f       	add	r18, r18
    37c6:	33 1f       	adc	r19, r19
    37c8:	22 0f       	add	r18, r18
    37ca:	33 1f       	adc	r19, r19
    37cc:	42 0f       	add	r20, r18
    37ce:	53 1f       	adc	r21, r19
    37d0:	44 0f       	add	r20, r20
    37d2:	55 1f       	adc	r21, r21
    37d4:	4a 0f       	add	r20, r26
    37d6:	51 1d       	adc	r21, r1
    37d8:	31 96       	adiw	r30, 0x01	; 1
    37da:	df 01       	movw	r26, r30
    37dc:	11 97       	sbiw	r26, 0x01	; 1
    37de:	2c 91       	ld	r18, X
    37e0:	a0 ed       	ldi	r26, 0xD0	; 208
    37e2:	a2 0f       	add	r26, r18
    37e4:	aa 30       	cpi	r26, 0x0A	; 10
    37e6:	48 f3       	brcs	.-46     	; 0x37ba <strtod+0x190>
    37e8:	c4 ff       	sbrs	r28, 4
    37ea:	03 c0       	rjmp	.+6      	; 0x37f2 <strtod+0x1c8>
    37ec:	51 95       	neg	r21
    37ee:	41 95       	neg	r20
    37f0:	51 09       	sbc	r21, r1
    37f2:	04 0f       	add	r16, r20
    37f4:	15 1f       	adc	r17, r21
    37f6:	c1 ff       	sbrs	r28, 1
    37f8:	07 c0       	rjmp	.+14     	; 0x3808 <strtod+0x1de>
    37fa:	e1 14       	cp	r14, r1
    37fc:	f1 04       	cpc	r15, r1
    37fe:	21 f0       	breq	.+8      	; 0x3808 <strtod+0x1de>
    3800:	31 97       	sbiw	r30, 0x01	; 1
    3802:	d7 01       	movw	r26, r14
    3804:	ed 93       	st	X+, r30
    3806:	fc 93       	st	X, r31
    3808:	0e 94 44 0a 	call	0x1488	; 0x1488 <__floatunsisf>
    380c:	c3 70       	andi	r28, 0x03	; 3
    380e:	c3 30       	cpi	r28, 0x03	; 3
    3810:	19 f0       	breq	.+6      	; 0x3818 <strtod+0x1ee>
    3812:	6b 01       	movw	r12, r22
    3814:	7c 01       	movw	r14, r24
    3816:	06 c0       	rjmp	.+12     	; 0x3824 <strtod+0x1fa>
    3818:	6b 01       	movw	r12, r22
    381a:	7c 01       	movw	r14, r24
    381c:	f7 fa       	bst	r15, 7
    381e:	f0 94       	com	r15
    3820:	f7 f8       	bld	r15, 7
    3822:	f0 94       	com	r15
    3824:	20 e0       	ldi	r18, 0x00	; 0
    3826:	30 e0       	ldi	r19, 0x00	; 0
    3828:	a9 01       	movw	r20, r18
    382a:	c7 01       	movw	r24, r14
    382c:	b6 01       	movw	r22, r12
    382e:	0e 94 97 09 	call	0x132e	; 0x132e <__cmpsf2>
    3832:	88 23       	and	r24, r24
    3834:	09 f4       	brne	.+2      	; 0x3838 <strtod+0x20e>
    3836:	45 c0       	rjmp	.+138    	; 0x38c2 <strtod+0x298>
    3838:	17 ff       	sbrs	r17, 7
    383a:	06 c0       	rjmp	.+12     	; 0x3848 <strtod+0x21e>
    383c:	11 95       	neg	r17
    383e:	01 95       	neg	r16
    3840:	11 09       	sbc	r17, r1
    3842:	c5 eb       	ldi	r28, 0xB5	; 181
    3844:	d0 e0       	ldi	r29, 0x00	; 0
    3846:	02 c0       	rjmp	.+4      	; 0x384c <strtod+0x222>
    3848:	cd ec       	ldi	r28, 0xCD	; 205
    384a:	d0 e0       	ldi	r29, 0x00	; 0
    384c:	5e 01       	movw	r10, r28
    384e:	b8 e1       	ldi	r27, 0x18	; 24
    3850:	ab 1a       	sub	r10, r27
    3852:	b1 08       	sbc	r11, r1
    3854:	46 01       	movw	r8, r12
    3856:	be 2d       	mov	r27, r14
    3858:	af 2d       	mov	r26, r15
    385a:	90 e2       	ldi	r25, 0x20	; 32
    385c:	e9 2e       	mov	r14, r25
    385e:	f1 2c       	mov	r15, r1
    3860:	0e 15       	cp	r16, r14
    3862:	1f 05       	cpc	r17, r15
    3864:	84 f0       	brlt	.+32     	; 0x3886 <strtod+0x25c>
    3866:	fe 01       	movw	r30, r28
    3868:	25 91       	lpm	r18, Z+
    386a:	35 91       	lpm	r19, Z+
    386c:	45 91       	lpm	r20, Z+
    386e:	54 91       	lpm	r21, Z
    3870:	b4 01       	movw	r22, r8
    3872:	8b 2f       	mov	r24, r27
    3874:	9a 2f       	mov	r25, r26
    3876:	0e 94 2a 0b 	call	0x1654	; 0x1654 <__mulsf3>
    387a:	4b 01       	movw	r8, r22
    387c:	b8 2f       	mov	r27, r24
    387e:	a9 2f       	mov	r26, r25
    3880:	0e 19       	sub	r16, r14
    3882:	1f 09       	sbc	r17, r15
    3884:	ed cf       	rjmp	.-38     	; 0x3860 <strtod+0x236>
    3886:	24 97       	sbiw	r28, 0x04	; 4
    3888:	f5 94       	asr	r15
    388a:	e7 94       	ror	r14
    388c:	ca 15       	cp	r28, r10
    388e:	db 05       	cpc	r29, r11
    3890:	39 f7       	brne	.-50     	; 0x3860 <strtod+0x236>
    3892:	64 01       	movw	r12, r8
    3894:	eb 2e       	mov	r14, r27
    3896:	fa 2e       	mov	r15, r26
    3898:	8e 2d       	mov	r24, r14
    389a:	88 0f       	add	r24, r24
    389c:	8f 2d       	mov	r24, r15
    389e:	88 1f       	adc	r24, r24
    38a0:	8f 3f       	cpi	r24, 0xFF	; 255
    38a2:	49 f0       	breq	.+18     	; 0x38b6 <strtod+0x28c>
    38a4:	20 e0       	ldi	r18, 0x00	; 0
    38a6:	30 e0       	ldi	r19, 0x00	; 0
    38a8:	a9 01       	movw	r20, r18
    38aa:	c7 01       	movw	r24, r14
    38ac:	b6 01       	movw	r22, r12
    38ae:	0e 94 97 09 	call	0x132e	; 0x132e <__cmpsf2>
    38b2:	81 11       	cpse	r24, r1
    38b4:	06 c0       	rjmp	.+12     	; 0x38c2 <strtod+0x298>
    38b6:	82 e2       	ldi	r24, 0x22	; 34
    38b8:	90 e0       	ldi	r25, 0x00	; 0
    38ba:	90 93 73 04 	sts	0x0473, r25	; 0x800473 <errno+0x1>
    38be:	80 93 72 04 	sts	0x0472, r24	; 0x800472 <errno>
    38c2:	c7 01       	movw	r24, r14
    38c4:	b6 01       	movw	r22, r12
    38c6:	09 c0       	rjmp	.+18     	; 0x38da <strtod+0x2b0>
    38c8:	60 e0       	ldi	r22, 0x00	; 0
    38ca:	70 e0       	ldi	r23, 0x00	; 0
    38cc:	80 e8       	ldi	r24, 0x80	; 128
    38ce:	9f ef       	ldi	r25, 0xFF	; 255
    38d0:	04 c0       	rjmp	.+8      	; 0x38da <strtod+0x2b0>
    38d2:	60 e0       	ldi	r22, 0x00	; 0
    38d4:	70 e0       	ldi	r23, 0x00	; 0
    38d6:	80 ec       	ldi	r24, 0xC0	; 192
    38d8:	9f e7       	ldi	r25, 0x7F	; 127
    38da:	cd b7       	in	r28, 0x3d	; 61
    38dc:	de b7       	in	r29, 0x3e	; 62
    38de:	ee e0       	ldi	r30, 0x0E	; 14
    38e0:	0c 94 b8 1c 	jmp	0x3970	; 0x3970 <__epilogue_restores__+0x8>

000038e4 <__ctype_isfalse>:
    38e4:	99 27       	eor	r25, r25
    38e6:	88 27       	eor	r24, r24

000038e8 <__ctype_istrue>:
    38e8:	08 95       	ret

000038ea <strncasecmp_P>:
    38ea:	fb 01       	movw	r30, r22
    38ec:	dc 01       	movw	r26, r24
    38ee:	41 50       	subi	r20, 0x01	; 1
    38f0:	50 40       	sbci	r21, 0x00	; 0
    38f2:	88 f0       	brcs	.+34     	; 0x3916 <strncasecmp_P+0x2c>
    38f4:	8d 91       	ld	r24, X+
    38f6:	81 34       	cpi	r24, 0x41	; 65
    38f8:	1c f0       	brlt	.+6      	; 0x3900 <strncasecmp_P+0x16>
    38fa:	8b 35       	cpi	r24, 0x5B	; 91
    38fc:	0c f4       	brge	.+2      	; 0x3900 <strncasecmp_P+0x16>
    38fe:	80 5e       	subi	r24, 0xE0	; 224
    3900:	65 91       	lpm	r22, Z+
    3902:	61 34       	cpi	r22, 0x41	; 65
    3904:	1c f0       	brlt	.+6      	; 0x390c <strncasecmp_P+0x22>
    3906:	6b 35       	cpi	r22, 0x5B	; 91
    3908:	0c f4       	brge	.+2      	; 0x390c <strncasecmp_P+0x22>
    390a:	60 5e       	subi	r22, 0xE0	; 224
    390c:	86 1b       	sub	r24, r22
    390e:	61 11       	cpse	r22, r1
    3910:	71 f3       	breq	.-36     	; 0x38ee <strncasecmp_P+0x4>
    3912:	99 0b       	sbc	r25, r25
    3914:	08 95       	ret
    3916:	88 1b       	sub	r24, r24
    3918:	fc cf       	rjmp	.-8      	; 0x3912 <strncasecmp_P+0x28>

0000391a <__muluhisi3>:
    391a:	0e 94 cf 1c 	call	0x399e	; 0x399e <__umulhisi3>
    391e:	a5 9f       	mul	r26, r21
    3920:	90 0d       	add	r25, r0
    3922:	b4 9f       	mul	r27, r20
    3924:	90 0d       	add	r25, r0
    3926:	a4 9f       	mul	r26, r20
    3928:	80 0d       	add	r24, r0
    392a:	91 1d       	adc	r25, r1
    392c:	11 24       	eor	r1, r1
    392e:	08 95       	ret

00003930 <__prologue_saves__>:
    3930:	2f 92       	push	r2
    3932:	3f 92       	push	r3
    3934:	4f 92       	push	r4
    3936:	5f 92       	push	r5
    3938:	6f 92       	push	r6
    393a:	7f 92       	push	r7
    393c:	8f 92       	push	r8
    393e:	9f 92       	push	r9
    3940:	af 92       	push	r10
    3942:	bf 92       	push	r11
    3944:	cf 92       	push	r12
    3946:	df 92       	push	r13
    3948:	ef 92       	push	r14
    394a:	ff 92       	push	r15
    394c:	0f 93       	push	r16
    394e:	1f 93       	push	r17
    3950:	cf 93       	push	r28
    3952:	df 93       	push	r29
    3954:	cd b7       	in	r28, 0x3d	; 61
    3956:	de b7       	in	r29, 0x3e	; 62
    3958:	ca 1b       	sub	r28, r26
    395a:	db 0b       	sbc	r29, r27
    395c:	0f b6       	in	r0, 0x3f	; 63
    395e:	f8 94       	cli
    3960:	de bf       	out	0x3e, r29	; 62
    3962:	0f be       	out	0x3f, r0	; 63
    3964:	cd bf       	out	0x3d, r28	; 61
    3966:	09 94       	ijmp

00003968 <__epilogue_restores__>:
    3968:	2a 88       	ldd	r2, Y+18	; 0x12
    396a:	39 88       	ldd	r3, Y+17	; 0x11
    396c:	48 88       	ldd	r4, Y+16	; 0x10
    396e:	5f 84       	ldd	r5, Y+15	; 0x0f
    3970:	6e 84       	ldd	r6, Y+14	; 0x0e
    3972:	7d 84       	ldd	r7, Y+13	; 0x0d
    3974:	8c 84       	ldd	r8, Y+12	; 0x0c
    3976:	9b 84       	ldd	r9, Y+11	; 0x0b
    3978:	aa 84       	ldd	r10, Y+10	; 0x0a
    397a:	b9 84       	ldd	r11, Y+9	; 0x09
    397c:	c8 84       	ldd	r12, Y+8	; 0x08
    397e:	df 80       	ldd	r13, Y+7	; 0x07
    3980:	ee 80       	ldd	r14, Y+6	; 0x06
    3982:	fd 80       	ldd	r15, Y+5	; 0x05
    3984:	0c 81       	ldd	r16, Y+4	; 0x04
    3986:	1b 81       	ldd	r17, Y+3	; 0x03
    3988:	aa 81       	ldd	r26, Y+2	; 0x02
    398a:	b9 81       	ldd	r27, Y+1	; 0x01
    398c:	ce 0f       	add	r28, r30
    398e:	d1 1d       	adc	r29, r1
    3990:	0f b6       	in	r0, 0x3f	; 63
    3992:	f8 94       	cli
    3994:	de bf       	out	0x3e, r29	; 62
    3996:	0f be       	out	0x3f, r0	; 63
    3998:	cd bf       	out	0x3d, r28	; 61
    399a:	ed 01       	movw	r28, r26
    399c:	08 95       	ret

0000399e <__umulhisi3>:
    399e:	a2 9f       	mul	r26, r18
    39a0:	b0 01       	movw	r22, r0
    39a2:	b3 9f       	mul	r27, r19
    39a4:	c0 01       	movw	r24, r0
    39a6:	a3 9f       	mul	r26, r19
    39a8:	70 0d       	add	r23, r0
    39aa:	81 1d       	adc	r24, r1
    39ac:	11 24       	eor	r1, r1
    39ae:	91 1d       	adc	r25, r1
    39b0:	b2 9f       	mul	r27, r18
    39b2:	70 0d       	add	r23, r0
    39b4:	81 1d       	adc	r24, r1
    39b6:	11 24       	eor	r1, r1
    39b8:	91 1d       	adc	r25, r1
    39ba:	08 95       	ret

000039bc <__do_global_dtors>:
    39bc:	10 e0       	ldi	r17, 0x00	; 0
    39be:	c4 e9       	ldi	r28, 0x94	; 148
    39c0:	d0 e0       	ldi	r29, 0x00	; 0
    39c2:	04 c0       	rjmp	.+8      	; 0x39cc <__do_global_dtors+0x10>
    39c4:	fe 01       	movw	r30, r28
    39c6:	0e 94 c0 18 	call	0x3180	; 0x3180 <__tablejump2__>
    39ca:	21 96       	adiw	r28, 0x01	; 1
    39cc:	c5 39       	cpi	r28, 0x95	; 149
    39ce:	d1 07       	cpc	r29, r17
    39d0:	c9 f7       	brne	.-14     	; 0x39c4 <__do_global_dtors+0x8>
    39d2:	f8 94       	cli

000039d4 <__stop_program>:
    39d4:	ff cf       	rjmp	.-2      	; 0x39d4 <__stop_program>
